

Microchip MPLAB XC8 Assembler V2.45 build 20230818022343 
                                                                                               Mon Dec 18 15:52:52 2023

Microchip MPLAB XC8 C Compiler v2.45 (Free license) build 20230818022343 Og1 
     1                           	processor	18F4620
     2                           	fnconf	rparam,??,?,0
     3                           	pagewidth 120
     4                           	opt	flic
     5                           	psect	idataCOMRAM,global,class=CODE,delta=1,noexec
     6                           	psect	cinit,global,reloc=2,class=CODE,delta=1
     7                           	psect	bssCOMRAM,global,class=COMRAM,space=1,delta=1,lowdata,noexec
     8                           	psect	dataCOMRAM,global,class=COMRAM,space=1,delta=1,lowdata,noexec
     9                           	psect	cstackCOMRAM,global,class=COMRAM,space=1,delta=1,lowdata,noexec
    10                           	psect	text0,global,reloc=2,class=CODE,delta=1
    11                           	psect	text1,global,reloc=2,class=CODE,delta=1
    12                           	psect	text2,global,reloc=2,class=CODE,delta=1
    13                           	psect	text3,global,reloc=2,class=CODE,delta=1
    14                           	psect	text4,global,reloc=2,class=CODE,delta=1
    15                           	psect	text5,global,reloc=2,class=CODE,delta=1
    16                           	psect	text6,global,reloc=2,class=CODE,delta=1
    17                           	psect	text7,global,reloc=2,class=CODE,delta=1
    18                           	psect	text8,global,reloc=2,class=CODE,delta=1
    19                           	psect	text9,global,reloc=2,class=CODE,delta=1
    20                           	psect	text10,global,reloc=2,class=CODE,delta=1
    21                           	psect	text11,global,reloc=2,class=CODE,delta=1
    22                           	psect	smallconst,global,reloc=2,class=SMALLCONST,delta=1,noexec
    23                           	psect	intsave_regs,global,class=BIGRAM,space=1,delta=1,noexec
    24                           	psect	rparam,global,class=COMRAM,space=1,delta=1,noexec
    25                           	psect	config,global,abs,ovrld,class=CONFIG,space=4,delta=1,noexec
    26   000000                     
    27                           ; Generated 23/03/2023 GMT
    28                           ; 
    29                           ; Copyright © 2023, Microchip Technology Inc. and its subsidiaries ("Microchip")
    30                           ; All rights reserved.
    31                           ; 
    32                           ; This software is developed by Microchip Technology Inc. and its subsidiaries ("Microch
      +                          ip").
    33                           ; 
    34                           ; Redistribution and use in source and binary forms, with or without modification, are
    35                           ; permitted provided that the following conditions are met:
    36                           ; 
    37                           ;     1. Redistributions of source code must retain the above copyright notice, this lis
      +                          t of
    38                           ;        conditions and the following disclaimer.
    39                           ; 
    40                           ;     2. Redistributions in binary form must reproduce the above copyright notice, this 
      +                          list
    41                           ;        of conditions and the following disclaimer in the documentation and/or other
    42                           ;        materials provided with the distribution. Publication is not required when
    43                           ;        this file is used in an embedded application.
    44                           ; 
    45                           ;     3. Microchip's name may not be used to endorse or promote products derived from th
      +                          is
    46                           ;        software without specific prior written permission.
    47                           ; 
    48                           ; THIS SOFTWARE IS PROVIDED BY MICROCHIP "AS IS" AND ANY EXPRESS OR IMPLIED WARRANTIES,
    49                           ; INCLUDING, BUT NOT LIMITED TO, THE IMPLIED WARRANTIES OF MERCHANTABILITY AND FITNESS F
      +                          OR
    50                           ; PURPOSE ARE DISCLAIMED.  IN NO EVENT SHALL MICROCHIP BE LIABLE FOR ANY DIRECT, INDIREC
      +                          T,
    51                           ; INCIDENTAL, SPECIAL, EXEMPLARY, OR CONSEQUENTIAL DAMAGES (INCLUDING BUT NOT LIMITED TO
    52                           ; PROCUREMENT OF SUBSTITUTE GOODS OR SERVICES; LOSS OF USE, DATA OR PROFITS; OR BUSINESS
    53                           ; INTERRUPTION) HOWSOEVER CAUSED AND ON ANY THEORY OF LIABILITY, WHETHER IN CONTRACT, ST
      +                          RICT
    54                           ; LIABILITY, OR TORT (INCLUDING NEGLIGENCE OR OTHERWISE) ARISING IN ANY WAY OUT OF THE U
      +                          SE OF
    55                           ; THIS SOFTWARE, EVEN IF ADVISED OF THE POSSIBILITY OF SUCH DAMAGE.
    56                           ; 
    57                           ; 
    58                           ; Code-generator required, PIC18F4620 Definitions
    59                           ; 
    60                           ; SFR Addresses
    61   000000                     
    62                           	psect	idataCOMRAM
    63   001714                     __pidataCOMRAM:
    64                           	callstack 0
    65                           
    66                           ;initializer for _LAT_REG_ADD_arr
    67   001714  89                 	db	137
    68   001715  0F                 	db	15
    69   001716  8A                 	db	138
    70   001717  0F                 	db	15
    71   001718  8B                 	db	139
    72   001719  0F                 	db	15
    73   00171A  8C                 	db	140
    74   00171B  0F                 	db	15
    75   00171C  8D                 	db	141
    76   00171D  0F                 	db	15
    77                           
    78                           ;initializer for _PORT_REG_ADD_arr
    79   00171E  80                 	db	128
    80   00171F  0F                 	db	15
    81   001720  81                 	db	129
    82   001721  0F                 	db	15
    83   001722  82                 	db	130
    84   001723  0F                 	db	15
    85   001724  83                 	db	131
    86   001725  0F                 	db	15
    87   001726  84                 	db	132
    88   001727  0F                 	db	15
    89                           
    90                           ;initializer for _TRIS_REG_ADD_arr
    91   001728  92                 	db	146
    92   001729  0F                 	db	15
    93   00172A  93                 	db	147
    94   00172B  0F                 	db	15
    95   00172C  94                 	db	148
    96   00172D  0F                 	db	15
    97   00172E  95                 	db	149
    98   00172F  0F                 	db	15
    99   001730  96                 	db	150
   100   001731  0F                 	db	15
   101                           
   102                           ;initializer for _push_btn_2
   103   001732  02                 	db	2
   104   001733  01                 	db	1
   105   001734  01                 	db	1
   106   001735  00                 	db	0
   107   001736  00                 	db	0
   108   001737  00                 	db	0
   109   001738  01                 	db	1
   110                           
   111                           ;initializer for _push_btn_1
   112   001739  02                 	db	2
   113   00173A  00                 	db	0
   114   00173B  01                 	db	1
   115   00173C  01                 	db	1
   116   00173D  01                 	db	1
   117   00173E  01                 	db	1
   118   00173F  00                 	db	0
   119                           
   120                           ;initializer for _led_2
   121   001740  02                 	db	2
   122   001741  03                 	db	3
   123   001742  00                 	db	0
   124                           
   125                           ;initializer for _led_1
   126   001743  02                 	db	2
   127   001744  02                 	db	2
   128   001745  00                 	db	0
   129                           
   130                           ;initializer for _button_2_state
   131   001746  01                 	db	1
   132                           
   133                           ;initializer for _button_1_state
   134   001747  01                 	db	1
   135   000000                     _LATA	set	3977
   136   000000                     _PORTE	set	3972
   137   000000                     _PORTD	set	3971
   138   000000                     _PORTC	set	3970
   139   000000                     _PORTB	set	3969
   140   000000                     _PORTA	set	3968
   141   000000                     _TRISA	set	3986
   142   000000                     _TRISE	set	3990
   143   000000                     _TRISD	set	3989
   144   000000                     _TRISC	set	3988
   145   000000                     _TRISB	set	3987
   146   000000                     _LATE	set	3981
   147   000000                     _LATD	set	3980
   148   000000                     _LATC	set	3979
   149   000000                     _LATB	set	3978
   150                           
   151                           ; #config settings
   152                           
   153                           	psect	cinit
   154   0016DE                     __pcinit:
   155                           	callstack 0
   156   0016DE                     start_initialization:
   157                           	callstack 0
   158   0016DE                     __initialization:
   159                           	callstack 0
   160                           
   161                           ; Initialize objects allocated to COMRAM (52 bytes)
   162                           ; load TBLPTR registers with __pidataCOMRAM
   163   0016DE  0E14               	movlw	low __pidataCOMRAM
   164   0016E0  6EF6               	movwf	tblptrl,c
   165   0016E2  0E17               	movlw	high __pidataCOMRAM
   166   0016E4  6EF7               	movwf	tblptrh,c
   167   0016E6  0E00               	movlw	low (__pidataCOMRAM shr (0+16))
   168   0016E8  6EF8               	movwf	tblptru,c
   169   0016EA  EE00  F001         	lfsr	0,__pdataCOMRAM
   170   0016EE  EE10 F034          	lfsr	1,52
   171   0016F2                     copy_data0:
   172   0016F2  0009               	tblrd		*+
   173   0016F4  CFF5 FFEE          	movff	tablat,postinc0
   174   0016F8  50E5               	movf	postdec1,w,c
   175   0016FA  50E1               	movf	fsr1l,w,c
   176   0016FC  E1FA               	bnz	copy_data0
   177                           
   178                           ; Clear objects allocated to COMRAM (15 bytes)
   179   0016FE  EE00  F047         	lfsr	0,__pbssCOMRAM
   180   001702  0E0F               	movlw	15
   181   001704                     clear_0:
   182   001704  6AEE               	clrf	postinc0,c
   183   001706  06E8               	decf	wreg,f,c
   184   001708  E1FD               	bnz	clear_0
   185   00170A                     end_of_initialization:
   186                           	callstack 0
   187   00170A                     __end_of__initialization:
   188                           	callstack 0
   189   00170A  0E00               	movlw	low (__Lmediumconst shr (0+16))
   190   00170C  6EF8               	movwf	tblptru,c
   191   00170E  0100               	movlb	0
   192   001710  EF9C  F00A         	goto	_main	;jump to C main() function
   193                           
   194                           	psect	bssCOMRAM
   195   000047                     __pbssCOMRAM:
   196                           	callstack 0
   197   000047                     led_toggle@F2942:
   198                           	callstack 0
   199   000047                     	ds	5
   200   00004C                     led_on_off@F2938:
   201                           	callstack 0
   202   00004C                     	ds	5
   203   000051                     led_init@F2933:
   204                           	callstack 0
   205   000051                     	ds	5
   206                           
   207                           	psect	dataCOMRAM
   208   000001                     __pdataCOMRAM:
   209                           	callstack 0
   210   000001                     _LAT_REG_ADD_arr:
   211                           	callstack 0
   212   000001                     	ds	10
   213   00000B                     _PORT_REG_ADD_arr:
   214                           	callstack 0
   215   00000B                     	ds	10
   216   000015                     _TRIS_REG_ADD_arr:
   217                           	callstack 0
   218   000015                     	ds	10
   219   00001F                     _push_btn_2:
   220                           	callstack 0
   221   00001F                     	ds	7
   222   000026                     _push_btn_1:
   223                           	callstack 0
   224   000026                     	ds	7
   225   00002D                     _led_2:
   226                           	callstack 0
   227   00002D                     	ds	3
   228   000030                     _led_1:
   229                           	callstack 0
   230   000030                     	ds	3
   231   000033                     _button_2_state:
   232                           	callstack 0
   233   000033                     	ds	1
   234   000034                     _button_1_state:
   235                           	callstack 0
   236   000034                     	ds	1
   237                           
   238                           	psect	cstackCOMRAM
   239   000035                     __pcstackCOMRAM:
   240                           	callstack 0
   241   000035                     gpio_pin_read_logic@p_pin_config:
   242                           	callstack 0
   243   000035                     set_bit_uint8@p_reg:
   244                           	callstack 0
   245   000035                     clear_bit_uint8@p_reg:
   246                           	callstack 0
   247                           
   248                           ; 2 bytes @ 0x0
   249   000035                     	ds	1
   250   000036                     gpio_pin_read_logic@p_logic:
   251                           	callstack 0
   252                           
   253                           ; 1 bytes @ 0x1
   254   000036                     	ds	1
   255   000037                     ??_gpio_pin_read_logic:
   256   000037                     set_bit_uint8@d_IDX_BIT_X:
   257                           	callstack 0
   258   000037                     clear_bit_uint8@d_IDX_BIT_X:
   259                           	callstack 0
   260                           
   261                           ; 1 bytes @ 0x2
   262   000037                     	ds	1
   263   000038                     ??_set_bit_uint8:
   264   000038                     ??_clear_bit_uint8:
   265                           
   266                           ; 1 bytes @ 0x3
   267   000038                     	ds	1
   268   000039                     gpio_pin_read_logic@bit_mask:
   269                           	callstack 0
   270                           
   271                           ; 1 bytes @ 0x4
   272   000039                     	ds	1
   273   00003A                     push_button_read@p_push_button:
   274                           	callstack 0
   275   00003A                     gpio_pin_direction_initialize@p_pin_config:
   276                           	callstack 0
   277   00003A                     gpio_pin_write_logic@p_pin_config:
   278                           	callstack 0
   279                           
   280                           ; 1 bytes @ 0x5
   281   00003A                     	ds	1
   282   00003B                     ??_gpio_pin_direction_initialize:
   283   00003B                     push_button_read@p_button_state:
   284                           	callstack 0
   285   00003B                     gpio_pin_write_logic@d_logic_desired:
   286                           	callstack 0
   287                           
   288                           ; 1 bytes @ 0x6
   289   00003B                     	ds	1
   290   00003C                     ??_gpio_pin_write_logic:
   291   00003C                     
   292                           ; 1 bytes @ 0x7
   293   00003C                     	ds	1
   294   00003D                     push_button_init@p_push_button:
   295                           	callstack 0
   296   00003D                     push_button_read@btn_pin_logic:
   297                           	callstack 0
   298                           
   299                           ; 1 bytes @ 0x8
   300   00003D                     	ds	1
   301   00003E                     led_on_off@p_led:
   302                           	callstack 0
   303   00003E                     gpio_pin_initialize@p_pin_config:
   304                           	callstack 0
   305                           
   306                           ; 1 bytes @ 0x9
   307   00003E                     	ds	1
   308   00003F                     ??_gpio_pin_initialize:
   309   00003F                     led_on_off@led_status:
   310                           	callstack 0
   311                           
   312                           ; 1 bytes @ 0xA
   313   00003F                     	ds	1
   314   000040                     led_on_off@led_pin:
   315                           	callstack 0
   316                           
   317                           ; 5 bytes @ 0xB
   318   000040                     	ds	1
   319   000041                     led_init@p_led:
   320                           	callstack 0
   321                           
   322                           ; 1 bytes @ 0xC
   323   000041                     	ds	1
   324   000042                     led_init@led_pin:
   325                           	callstack 0
   326                           
   327                           ; 5 bytes @ 0xD
   328   000042                     	ds	5
   329   000047                     
   330                           ; 1 bytes @ 0x12
   331 ;;
   332 ;;Main: autosize = 0, tempsize = 0, incstack = 0, save=0
   333 ;;
   334 ;; *************** function _main *****************
   335 ;; Defined at:
   336 ;;		line 31 in file "main.c"
   337 ;; Parameters:    Size  Location     Type
   338 ;;		None
   339 ;; Auto vars:     Size  Location     Type
   340 ;;		None
   341 ;; Return value:  Size  Location     Type
   342 ;;                  2  421[None  ] int 
   343 ;; Registers used:
   344 ;;		wreg, fsr1l, fsr1h, fsr2l, fsr2h, status,2, status,0, prodl, prodh, cstack
   345 ;; Tracked objects:
   346 ;;		On entry : 0/0
   347 ;;		On exit  : 0/0
   348 ;;		Unchanged: 0/0
   349 ;; Data sizes:     COMRAM   BANK0   BANK1   BANK2   BANK3   BANK4   BANK5   BANK6   BANK7   BANK8   BANK9  BANK10  BANK1
      +1  BANK12  BANK13  BANK14  BANK15
   350 ;;      Params:         0       0       0       0       0       0       0       0       0       0       0       0       
      +0       0       0       0       0
   351 ;;      Locals:         0       0       0       0       0       0       0       0       0       0       0       0       
      +0       0       0       0       0
   352 ;;      Temps:          0       0       0       0       0       0       0       0       0       0       0       0       
      +0       0       0       0       0
   353 ;;      Totals:         0       0       0       0       0       0       0       0       0       0       0       0       
      +0       0       0       0       0
   354 ;;Total ram usage:        0 bytes
   355 ;; Hardware stack levels required when called: 5
   356 ;; This function calls:
   357 ;;		_app_init
   358 ;;		_led_on_off
   359 ;;		_push_button_read
   360 ;; This function is called by:
   361 ;;		Startup code after reset
   362 ;; This function uses a non-reentrant model
   363 ;;
   364                           
   365                           	psect	text0
   366   001538                     __ptext0:
   367                           	callstack 0
   368   001538                     _main:
   369                           	callstack 26
   370   001538                     
   371                           ;main.c: 34:     app_init();
   372   001538  ECA4  F00B         	call	_app_init	;wreg free
   373   00153C                     l422:
   374                           
   375                           ;main.c: 37: {;main.c: 38:     push_button_read(&push_btn_1, &button_1_state);
   376   00153C  0E26               	movlw	low _push_btn_1
   377   00153E  6E3A               	movwf	push_button_read@p_push_button^0,c
   378   001540  0E34               	movlw	low _button_1_state
   379   001542  6E3B               	movwf	push_button_read@p_button_state^0,c
   380   001544  EC4A  F00A         	call	_push_button_read	;wreg free
   381   001548                     
   382                           ;main.c: 39:     if (BUTTON_PRESSED == button_1_state)
   383   001548  5034               	movf	_button_1_state^0,w,c
   384   00154A  A4D8               	btfss	status,2,c
   385   00154C  EFAA  F00A         	goto	u601
   386   001550  EFAC  F00A         	goto	u600
   387   001554                     u601:
   388   001554  EFB4  F00A         	goto	l1820
   389   001558                     u600:
   390   001558                     
   391                           ;main.c: 40:     {;main.c: 41:         led_on_off(&led_1, LED_ON);
   392   001558  0E30               	movlw	low _led_1
   393   00155A  6E3E               	movwf	led_on_off@p_led^0,c
   394   00155C  0E01               	movlw	1
   395   00155E  6E3F               	movwf	led_on_off@led_status^0,c
   396   001560  EC45  F00B         	call	_led_on_off	;wreg free
   397                           
   398                           ;main.c: 42:     }
   399   001564  EFBA  F00A         	goto	l424
   400   001568                     l1820:
   401                           
   402                           ;main.c: 44:     {;main.c: 45:         led_on_off(&led_1, LED_OFF);
   403   001568  0E30               	movlw	low _led_1
   404   00156A  6E3E               	movwf	led_on_off@p_led^0,c
   405   00156C  0E00               	movlw	0
   406   00156E  6E3F               	movwf	led_on_off@led_status^0,c
   407   001570  EC45  F00B         	call	_led_on_off	;wreg free
   408   001574                     l424:
   409                           
   410                           ;main.c: 48:     push_button_read(&push_btn_2, &button_2_state);
   411   001574  0E1F               	movlw	low _push_btn_2
   412   001576  6E3A               	movwf	push_button_read@p_push_button^0,c
   413   001578  0E33               	movlw	low _button_2_state
   414   00157A  6E3B               	movwf	push_button_read@p_button_state^0,c
   415   00157C  EC4A  F00A         	call	_push_button_read	;wreg free
   416   001580                     
   417                           ;main.c: 49:     if (BUTTON_PRESSED == button_2_state)
   418   001580  5033               	movf	_button_2_state^0,w,c
   419   001582  A4D8               	btfss	status,2,c
   420   001584  EFC6  F00A         	goto	u611
   421   001588  EFC8  F00A         	goto	u610
   422   00158C                     u611:
   423   00158C  EFD0  F00A         	goto	l1826
   424   001590                     u610:
   425   001590                     
   426                           ;main.c: 50:     {;main.c: 51:         led_on_off(&led_2, LED_ON);
   427   001590  0E2D               	movlw	low _led_2
   428   001592  6E3E               	movwf	led_on_off@p_led^0,c
   429   001594  0E01               	movlw	1
   430   001596  6E3F               	movwf	led_on_off@led_status^0,c
   431   001598  EC45  F00B         	call	_led_on_off	;wreg free
   432                           
   433                           ;main.c: 52:     }
   434   00159C  EF9E  F00A         	goto	l422
   435   0015A0                     l1826:
   436                           
   437                           ;main.c: 54:     {;main.c: 55:        led_on_off(&led_2, LED_OFF);
   438   0015A0  0E2D               	movlw	low _led_2
   439   0015A2  6E3E               	movwf	led_on_off@p_led^0,c
   440   0015A4  0E00               	movlw	0
   441   0015A6  6E3F               	movwf	led_on_off@led_status^0,c
   442   0015A8  EC45  F00B         	call	_led_on_off	;wreg free
   443   0015AC  EF9E  F00A         	goto	l422
   444   0015B0  EF00  F000         	goto	start
   445   0015B4                     __end_of_main:
   446                           	callstack 0
   447                           
   448 ;; *************** function _push_button_read *****************
   449 ;; Defined at:
   450 ;;		line 43 in file "_HAL/Drivers/button/button.c"
   451 ;; Parameters:    Size  Location     Type
   452 ;;  p_push_butto    1    5[COMRAM] PTR struct .
   453 ;;		 -> push_btn_2(7), push_btn_1(7), 
   454 ;;  p_button_sta    1    6[COMRAM] PTR enum E2914
   455 ;;		 -> button_2_state(1), button_1_state(1), 
   456 ;; Auto vars:     Size  Location     Type
   457 ;;  btn_pin_logi    1    8[COMRAM] enum E2821
   458 ;; Return value:  Size  Location     Type
   459 ;;                  1    wreg      enum E2804
   460 ;; Registers used:
   461 ;;		wreg, fsr1l, fsr1h, fsr2l, fsr2h, status,2, status,0, prodl, prodh, cstack
   462 ;; Tracked objects:
   463 ;;		On entry : 0/0
   464 ;;		On exit  : 0/0
   465 ;;		Unchanged: 0/0
   466 ;; Data sizes:     COMRAM   BANK0   BANK1   BANK2   BANK3   BANK4   BANK5   BANK6   BANK7   BANK8   BANK9  BANK10  BANK1
      +1  BANK12  BANK13  BANK14  BANK15
   467 ;;      Params:         2       0       0       0       0       0       0       0       0       0       0       0       
      +0       0       0       0       0
   468 ;;      Locals:         1       0       0       0       0       0       0       0       0       0       0       0       
      +0       0       0       0       0
   469 ;;      Temps:          1       0       0       0       0       0       0       0       0       0       0       0       
      +0       0       0       0       0
   470 ;;      Totals:         4       0       0       0       0       0       0       0       0       0       0       0       
      +0       0       0       0       0
   471 ;;Total ram usage:        4 bytes
   472 ;; Hardware stack levels used: 1
   473 ;; Hardware stack levels required when called: 1
   474 ;; This function calls:
   475 ;;		_gpio_pin_read_logic
   476 ;; This function is called by:
   477 ;;		_main
   478 ;; This function uses a non-reentrant model
   479 ;;
   480                           
   481                           	psect	text1
   482   001494                     __ptext1:
   483                           	callstack 0
   484   001494                     _push_button_read:
   485                           	callstack 29
   486   001494                     
   487                           ;_HAL/Drivers/button/button.c: 43: std_return push_button_read(push_button_t * p_push_bu
      +                          tton, button_state_t * p_button_state);_HAL/Drivers/button/button.c: 44: {;_HAL/Drivers/
      +                          button/button.c: 45:   if(((void*)0) == p_push_button || ((void*)0) == p_button_state)
   488   001494  503A               	movf	push_button_read@p_push_button^0,w,c
   489   001496  B4D8               	btfsc	status,2,c
   490   001498  EF50  F00A         	goto	u521
   491   00149C  EF52  F00A         	goto	u520
   492   0014A0                     u521:
   493   0014A0  EF9B  F00A         	goto	l106
   494   0014A4                     u520:
   495   0014A4  503B               	movf	push_button_read@p_button_state^0,w,c
   496   0014A6  A4D8               	btfss	status,2,c
   497   0014A8  EF58  F00A         	goto	u531
   498   0014AC  EF5A  F00A         	goto	u530
   499   0014B0                     u531:
   500   0014B0  EF5E  F00A         	goto	l1778
   501   0014B4                     u530:
   502   0014B4  EF9B  F00A         	goto	l106
   503   0014B8                     l105:
   504                           
   505                           ;_HAL/Drivers/button/button.c: 46:     {;_HAL/Drivers/button/button.c: 47:         retur
      +                          n EXCUTION_NOT_OK;;	Return value of _push_button_read is never used
   506   0014B8  EF9B  F00A         	goto	l106
   507   0014BC                     l1778:
   508                           
   509                           ;_HAL/Drivers/button/button.c: 50:     {;_HAL/Drivers/button/button.c: 51:       *p_butt
      +                          on_state = BUTTON_RELEASED;
   510   0014BC  503B               	movf	push_button_read@p_button_state^0,w,c
   511   0014BE  6ED9               	movwf	fsr2l,c
   512   0014C0  6ADA               	clrf	fsr2h,c
   513   0014C2  0E01               	movlw	1
   514   0014C4  6EDF               	movwf	indf2,c
   515   0014C6                     
   516                           ;_HAL/Drivers/button/button.c: 53:       LOGIC_t btn_pin_logic;;_HAL/Drivers/button/butt
      +                          on.c: 54:       gpio_pin_read_logic(&p_push_button->button_pin,&btn_pin_logic);
   517   0014C6  C03A  F035         	movff	push_button_read@p_push_button,gpio_pin_read_logic@p_pin_config
   518   0014CA  0E3D               	movlw	low push_button_read@btn_pin_logic
   519   0014CC  6E36               	movwf	gpio_pin_read_logic@p_logic^0,c
   520   0014CE  EC01  F008         	call	_gpio_pin_read_logic	;wreg free
   521   0014D2                     
   522                           ;_HAL/Drivers/button/button.c: 56:       if((HIGH == btn_pin_logic) && (BUTTON_ACTIVE_HI
      +                          GH == p_push_button->button_active_state))
   523   0014D2  043D               	decf	push_button_read@btn_pin_logic^0,w,c
   524   0014D4  A4D8               	btfss	status,2,c
   525   0014D6  EF6F  F00A         	goto	u541
   526   0014DA  EF71  F00A         	goto	u540
   527   0014DE                     u541:
   528   0014DE  EF84  F00A         	goto	l1788
   529   0014E2                     u540:
   530   0014E2  503A               	movf	push_button_read@p_push_button^0,w,c
   531   0014E4  6ED9               	movwf	fsr2l,c
   532   0014E6  6ADA               	clrf	fsr2h,c
   533   0014E8  0E06               	movlw	6
   534   0014EA  26D9               	addwf	fsr2l,f,c
   535   0014EC  04DE               	decf	postinc2,w,c
   536   0014EE  A4D8               	btfss	status,2,c
   537   0014F0  EF7C  F00A         	goto	u551
   538   0014F4  EF7E  F00A         	goto	u550
   539   0014F8                     u551:
   540   0014F8  EF84  F00A         	goto	l1788
   541   0014FC                     u550:
   542   0014FC                     l1786:
   543                           
   544                           ;_HAL/Drivers/button/button.c: 57:       {;_HAL/Drivers/button/button.c: 58:           *
      +                          p_button_state = BUTTON_PRESSED;
   545   0014FC  503B               	movf	push_button_read@p_button_state^0,w,c
   546   0014FE  6ED9               	movwf	fsr2l,c
   547   001500  6ADA               	clrf	fsr2h,c
   548   001502  6ADF               	clrf	indf2,c
   549                           
   550                           ;_HAL/Drivers/button/button.c: 59:       }
   551   001504  EF9B  F00A         	goto	l106
   552   001508                     l1788:
   553   001508  503D               	movf	push_button_read@btn_pin_logic^0,w,c
   554   00150A  A4D8               	btfss	status,2,c
   555   00150C  EF8A  F00A         	goto	u561
   556   001510  EF8C  F00A         	goto	u560
   557   001514                     u561:
   558   001514  EF5C  F00A         	goto	l105
   559   001518                     u560:
   560   001518  503A               	movf	push_button_read@p_push_button^0,w,c
   561   00151A  6ED9               	movwf	fsr2l,c
   562   00151C  6ADA               	clrf	fsr2h,c
   563   00151E  0E06               	movlw	6
   564   001520  26D9               	addwf	fsr2l,f,c
   565   001522  50DF               	movf	indf2,w,c
   566   001524  A4D8               	btfss	status,2,c
   567   001526  EF97  F00A         	goto	u571
   568   00152A  EF99  F00A         	goto	u570
   569   00152E                     u571:
   570   00152E  EF5C  F00A         	goto	l105
   571   001532                     u570:
   572   001532  EF7E  F00A         	goto	l1786
   573   001536                     l106:
   574   001536  0012               	return		;funcret
   575   001538                     __end_of_push_button_read:
   576                           	callstack 0
   577                           
   578 ;; *************** function _gpio_pin_read_logic *****************
   579 ;; Defined at:
   580 ;;		line 325 in file "_HAL/MCAL/GPIO/HAL_GPIO.c"
   581 ;; Parameters:    Size  Location     Type
   582 ;;  p_pin_config    1    0[COMRAM] PTR const struct .
   583 ;;		 -> push_btn_2$button_pin(5), push_btn_2(7), push_btn_1$button_pin(5), push_btn_1(7), 
   584 ;;  p_logic         1    1[COMRAM] PTR enum E2821
   585 ;;		 -> push_button_read@btn_pin_logic(1), 
   586 ;; Auto vars:     Size  Location     Type
   587 ;;  bit_mask        1    4[COMRAM] enum E2825
   588 ;; Return value:  Size  Location     Type
   589 ;;                  1    wreg      enum E2804
   590 ;; Registers used:
   591 ;;		wreg, fsr1l, fsr1h, fsr2l, fsr2h, status,2, status,0, prodl, prodh
   592 ;; Tracked objects:
   593 ;;		On entry : 0/0
   594 ;;		On exit  : 0/0
   595 ;;		Unchanged: 0/0
   596 ;; Data sizes:     COMRAM   BANK0   BANK1   BANK2   BANK3   BANK4   BANK5   BANK6   BANK7   BANK8   BANK9  BANK10  BANK1
      +1  BANK12  BANK13  BANK14  BANK15
   597 ;;      Params:         2       0       0       0       0       0       0       0       0       0       0       0       
      +0       0       0       0       0
   598 ;;      Locals:         1       0       0       0       0       0       0       0       0       0       0       0       
      +0       0       0       0       0
   599 ;;      Temps:          2       0       0       0       0       0       0       0       0       0       0       0       
      +0       0       0       0       0
   600 ;;      Totals:         5       0       0       0       0       0       0       0       0       0       0       0       
      +0       0       0       0       0
   601 ;;Total ram usage:        5 bytes
   602 ;; Hardware stack levels used: 1
   603 ;; This function calls:
   604 ;;		Nothing
   605 ;; This function is called by:
   606 ;;		_push_button_read
   607 ;; This function uses a non-reentrant model
   608 ;;
   609                           
   610                           	psect	text2
   611   001002                     __ptext2:
   612                           	callstack 0
   613   001002                     _gpio_pin_read_logic:
   614                           	callstack 29
   615   001002                     
   616                           ;_HAL/MCAL/GPIO/HAL_GPIO.c: 330:     if(((void*)0) == p_pin_config)
   617   001002  5035               	movf	gpio_pin_read_logic@p_pin_config^0,w,c
   618   001004  A4D8               	btfss	status,2,c
   619   001006  EF07  F008         	goto	u491
   620   00100A  EF09  F008         	goto	u490
   621   00100E                     u491:
   622   00100E  EF2B  F008         	goto	l1756
   623   001012                     u490:
   624   001012  EF7E  F008         	goto	l312
   625   001016                     l1736:
   626                           
   627                           ;_HAL/MCAL/GPIO/HAL_GPIO.c: 340:                 bit_mask = MASK_BIT_0;
   628   001016  0E01               	movlw	1
   629   001018  6E39               	movwf	gpio_pin_read_logic@bit_mask^0,c
   630                           
   631                           ;_HAL/MCAL/GPIO/HAL_GPIO.c: 341:                 break;
   632   00101A  EF5D  F008         	goto	l1758
   633   00101E                     l1738:
   634                           
   635                           ;_HAL/MCAL/GPIO/HAL_GPIO.c: 343:                 bit_mask = MASK_BIT_1;
   636   00101E  0E02               	movlw	2
   637   001020  6E39               	movwf	gpio_pin_read_logic@bit_mask^0,c
   638                           
   639                           ;_HAL/MCAL/GPIO/HAL_GPIO.c: 344:                 break;
   640   001022  EF5D  F008         	goto	l1758
   641   001026                     l1740:
   642                           
   643                           ;_HAL/MCAL/GPIO/HAL_GPIO.c: 346:                 bit_mask = MASK_BIT_2;
   644   001026  0E04               	movlw	4
   645   001028  6E39               	movwf	gpio_pin_read_logic@bit_mask^0,c
   646                           
   647                           ;_HAL/MCAL/GPIO/HAL_GPIO.c: 347:                 break;
   648   00102A  EF5D  F008         	goto	l1758
   649   00102E                     l1742:
   650                           
   651                           ;_HAL/MCAL/GPIO/HAL_GPIO.c: 349:                 bit_mask = MASK_BIT_3;
   652   00102E  0E08               	movlw	8
   653   001030  6E39               	movwf	gpio_pin_read_logic@bit_mask^0,c
   654                           
   655                           ;_HAL/MCAL/GPIO/HAL_GPIO.c: 350:                 break;
   656   001032  EF5D  F008         	goto	l1758
   657   001036                     l1744:
   658                           
   659                           ;_HAL/MCAL/GPIO/HAL_GPIO.c: 352:                 bit_mask = MASK_BIT_4;
   660   001036  0E10               	movlw	16
   661   001038  6E39               	movwf	gpio_pin_read_logic@bit_mask^0,c
   662                           
   663                           ;_HAL/MCAL/GPIO/HAL_GPIO.c: 353:                 break;
   664   00103A  EF5D  F008         	goto	l1758
   665   00103E                     l1746:
   666                           
   667                           ;_HAL/MCAL/GPIO/HAL_GPIO.c: 355:                 bit_mask = MASK_BIT_5;
   668   00103E  0E20               	movlw	32
   669   001040  6E39               	movwf	gpio_pin_read_logic@bit_mask^0,c
   670                           
   671                           ;_HAL/MCAL/GPIO/HAL_GPIO.c: 356:                 break;
   672   001042  EF5D  F008         	goto	l1758
   673   001046                     l1748:
   674                           
   675                           ;_HAL/MCAL/GPIO/HAL_GPIO.c: 358:                 bit_mask = MASK_BIT_6;
   676   001046  0E40               	movlw	64
   677   001048  6E39               	movwf	gpio_pin_read_logic@bit_mask^0,c
   678                           
   679                           ;_HAL/MCAL/GPIO/HAL_GPIO.c: 359:                 break;
   680   00104A  EF5D  F008         	goto	l1758
   681   00104E                     l1750:
   682                           
   683                           ;_HAL/MCAL/GPIO/HAL_GPIO.c: 361:                 bit_mask = MASK_BIT_7;
   684   00104E  0E80               	movlw	128
   685   001050  6E39               	movwf	gpio_pin_read_logic@bit_mask^0,c
   686                           
   687                           ;_HAL/MCAL/GPIO/HAL_GPIO.c: 362:                 break;
   688   001052  EF5D  F008         	goto	l1758
   689   001056                     l1756:
   690   001056  5035               	movf	gpio_pin_read_logic@p_pin_config^0,w,c
   691   001058  6ED9               	movwf	fsr2l,c
   692   00105A  6ADA               	clrf	fsr2h,c
   693   00105C  0E01               	movlw	1
   694   00105E  26D9               	addwf	fsr2l,f,c
   695   001060  50DF               	movf	indf2,w,c
   696   001062  6E37               	movwf	??_gpio_pin_read_logic^0,c
   697   001064  6A38               	clrf	(??_gpio_pin_read_logic+1)^0,c
   698                           
   699                           ; Switch on 2 bytes has been partitioned into a top level switch of size 1, and 1 sub-sw
      +                          itches
   700                           ; Switch size 1, requested type "simple"
   701                           ; Number of cases is 1, Range of values is 0 to 0
   702                           ; switch strategies available:
   703                           ; Name         Instructions Cycles
   704                           ; simple_byte            4     3 (average)
   705                           ;	Chosen strategy is simple_byte
   706   001066  5038               	movf	(??_gpio_pin_read_logic+1)^0,w,c
   707   001068  0A00               	xorlw	0	; case 0
   708   00106A  B4D8               	btfsc	status,2,c
   709   00106C  EF3A  F008         	goto	l1852
   710   001070  EF7E  F008         	goto	l312
   711   001074                     l1852:
   712                           
   713                           ; Switch size 1, requested type "simple"
   714                           ; Number of cases is 8, Range of values is 0 to 7
   715                           ; switch strategies available:
   716                           ; Name         Instructions Cycles
   717                           ; simple_byte           25    13 (average)
   718                           ;	Chosen strategy is simple_byte
   719   001074  5037               	movf	??_gpio_pin_read_logic^0,w,c
   720   001076  0A00               	xorlw	0	; case 0
   721   001078  B4D8               	btfsc	status,2,c
   722   00107A  EF0B  F008         	goto	l1736
   723   00107E  0A01               	xorlw	1	; case 1
   724   001080  B4D8               	btfsc	status,2,c
   725   001082  EF0F  F008         	goto	l1738
   726   001086  0A03               	xorlw	3	; case 2
   727   001088  B4D8               	btfsc	status,2,c
   728   00108A  EF13  F008         	goto	l1740
   729   00108E  0A01               	xorlw	1	; case 3
   730   001090  B4D8               	btfsc	status,2,c
   731   001092  EF17  F008         	goto	l1742
   732   001096  0A07               	xorlw	7	; case 4
   733   001098  B4D8               	btfsc	status,2,c
   734   00109A  EF1B  F008         	goto	l1744
   735   00109E  0A01               	xorlw	1	; case 5
   736   0010A0  B4D8               	btfsc	status,2,c
   737   0010A2  EF1F  F008         	goto	l1746
   738   0010A6  0A03               	xorlw	3	; case 6
   739   0010A8  B4D8               	btfsc	status,2,c
   740   0010AA  EF23  F008         	goto	l1748
   741   0010AE  0A01               	xorlw	1	; case 7
   742   0010B0  B4D8               	btfsc	status,2,c
   743   0010B2  EF27  F008         	goto	l1750
   744   0010B6  EF7E  F008         	goto	l312
   745   0010BA                     l1758:
   746                           
   747                           ;_HAL/MCAL/GPIO/HAL_GPIO.c: 368:         *p_logic = ((*(PORT_REG_ADD_arr[p_pin_config->p
      +                          ort]) & bit_mask) == bit_mask);
   748   0010BA  5036               	movf	gpio_pin_read_logic@p_logic^0,w,c
   749   0010BC  6ED9               	movwf	fsr2l,c
   750   0010BE  6ADA               	clrf	fsr2h,c
   751   0010C0  5035               	movf	gpio_pin_read_logic@p_pin_config^0,w,c
   752   0010C2  6EE1               	movwf	fsr1l,c
   753   0010C4  6AE2               	clrf	fsr1h,c
   754   0010C6  50E7               	movf	indf1,w,c
   755   0010C8  0D02               	mullw	2
   756   0010CA  50F3               	movf	243,w,c
   757   0010CC  0F0B               	addlw	low _PORT_REG_ADD_arr
   758   0010CE  6EE1               	movwf	fsr1l,c
   759   0010D0  6AE2               	clrf	fsr1h,c
   760   0010D2  CFE6 F037          	movff	postinc1,??_gpio_pin_read_logic
   761   0010D6  CFE5 F038          	movff	postdec1,??_gpio_pin_read_logic+1
   762   0010DA  C037  FFE1         	movff	??_gpio_pin_read_logic,fsr1l
   763   0010DE  C038  FFE2         	movff	??_gpio_pin_read_logic+1,fsr1h
   764   0010E2  50E7               	movf	indf1,w,c
   765   0010E4  1439               	andwf	gpio_pin_read_logic@bit_mask^0,w,c	;volatile
   766   0010E6  1839               	xorwf	gpio_pin_read_logic@bit_mask^0,w,c
   767   0010E8  B4D8               	btfsc	status,2,c
   768   0010EA  EF79  F008         	goto	u501
   769   0010EE  EF7C  F008         	goto	u500
   770   0010F2                     u501:
   771   0010F2  0E01               	movlw	1
   772   0010F4  EF7D  F008         	goto	u510
   773   0010F8                     u500:
   774   0010F8  0E00               	movlw	0
   775   0010FA                     u510:
   776   0010FA  6EDF               	movwf	indf2,c
   777   0010FC                     l312:
   778   0010FC  0012               	return		;funcret
   779   0010FE                     __end_of_gpio_pin_read_logic:
   780                           	callstack 0
   781                           
   782 ;; *************** function _led_on_off *****************
   783 ;; Defined at:
   784 ;;		line 50 in file "_HAL/Drivers/LED/LED.c"
   785 ;; Parameters:    Size  Location     Type
   786 ;;  p_led           1    9[COMRAM] PTR struct .
   787 ;;		 -> led_2(3), led_1(3), 
   788 ;;  led_status      1   10[COMRAM] enum E2914
   789 ;; Auto vars:     Size  Location     Type
   790 ;;  led_pin         5   11[COMRAM] struct .
   791 ;; Return value:  Size  Location     Type
   792 ;;                  1    wreg      enum E2804
   793 ;; Registers used:
   794 ;;		wreg, fsr1l, fsr1h, fsr2l, fsr2h, status,2, status,0, prodl, prodh, cstack
   795 ;; Tracked objects:
   796 ;;		On entry : 0/0
   797 ;;		On exit  : 0/0
   798 ;;		Unchanged: 0/0
   799 ;; Data sizes:     COMRAM   BANK0   BANK1   BANK2   BANK3   BANK4   BANK5   BANK6   BANK7   BANK8   BANK9  BANK10  BANK1
      +1  BANK12  BANK13  BANK14  BANK15
   800 ;;      Params:         2       0       0       0       0       0       0       0       0       0       0       0       
      +0       0       0       0       0
   801 ;;      Locals:         5       0       0       0       0       0       0       0       0       0       0       0       
      +0       0       0       0       0
   802 ;;      Temps:          0       0       0       0       0       0       0       0       0       0       0       0       
      +0       0       0       0       0
   803 ;;      Totals:         7       0       0       0       0       0       0       0       0       0       0       0       
      +0       0       0       0       0
   804 ;;Total ram usage:        7 bytes
   805 ;; Hardware stack levels used: 1
   806 ;; Hardware stack levels required when called: 2
   807 ;; This function calls:
   808 ;;		_gpio_pin_write_logic
   809 ;; This function is called by:
   810 ;;		_main
   811 ;; This function uses a non-reentrant model
   812 ;;
   813                           
   814                           	psect	text3
   815   00168A                     __ptext3:
   816                           	callstack 0
   817   00168A                     _led_on_off:
   818                           	callstack 28
   819   00168A                     
   820                           ;_HAL/Drivers/LED/LED.c: 50: std_return led_on_off(led_t * p_led, led_status_t led_statu
      +                          s);_HAL/Drivers/LED/LED.c: 51: {;_HAL/Drivers/LED/LED.c: 52:     if(((void*)0) == p_led 
      +                          )
   821   00168A  503E               	movf	led_on_off@p_led^0,w,c
   822   00168C  A4D8               	btfss	status,2,c
   823   00168E  EF4B  F00B         	goto	u581
   824   001692  EF4D  F00B         	goto	u580
   825   001696                     u581:
   826   001696  EF4F  F00B         	goto	l1800
   827   00169A                     u580:
   828   00169A  EF6E  F00B         	goto	l164
   829   00169E                     l1800:
   830                           
   831                           ;_HAL/Drivers/LED/LED.c: 57:     {;_HAL/Drivers/LED/LED.c: 58:         pin_config_t led_
      +                          pin = {.direction= DIRECTION_OUTPUT,
   832   00169E  EE20  F04C         	lfsr	2,led_on_off@F2938
   833   0016A2  EE10  F040         	lfsr	1,led_on_off@led_pin
   834   0016A6  0E04               	movlw	4
   835   0016A8                     u591:
   836   0016A8  CFDB FFE3          	movff	plusw2,plusw1
   837   0016AC  06E8               	decf	wreg,f,c
   838   0016AE  E2FC               	bc	u591
   839   0016B0  503E               	movf	led_on_off@p_led^0,w,c
   840   0016B2  6ED9               	movwf	fsr2l,c
   841   0016B4  6ADA               	clrf	fsr2h,c
   842   0016B6  50DF               	movf	indf2,w,c
   843   0016B8  6E40               	movwf	led_on_off@led_pin^0,c
   844   0016BA  503E               	movf	led_on_off@p_led^0,w,c
   845   0016BC  6ED9               	movwf	fsr2l,c
   846   0016BE  6ADA               	clrf	fsr2h,c
   847   0016C0  0E01               	movlw	1
   848   0016C2  26D9               	addwf	fsr2l,f,c
   849   0016C4  50DF               	movf	indf2,w,c
   850   0016C6  6E41               	movwf	(led_on_off@led_pin+1)^0,c
   851   0016C8  0E00               	movlw	0
   852   0016CA  6E42               	movwf	(led_on_off@led_pin+2)^0,c
   853   0016CC  C03F  F043         	movff	led_on_off@led_status,led_on_off@led_pin+3
   854   0016D0                     
   855                           ;_HAL/Drivers/LED/LED.c: 63:        gpio_pin_write_logic(&led_pin,led_status);
   856   0016D0  0E40               	movlw	low led_on_off@led_pin
   857   0016D2  6E3A               	movwf	gpio_pin_write_logic@p_pin_config^0,c
   858   0016D4  C03F  F03B         	movff	led_on_off@led_status,gpio_pin_write_logic@d_logic_desired
   859   0016D8  EC7F  F008         	call	_gpio_pin_write_logic	;wreg free
   860   0016DC                     l164:
   861   0016DC  0012               	return		;funcret
   862   0016DE                     __end_of_led_on_off:
   863                           	callstack 0
   864                           
   865 ;; *************** function _app_init *****************
   866 ;; Defined at:
   867 ;;		line 29 in file "_APP/application.c"
   868 ;; Parameters:    Size  Location     Type
   869 ;;		None
   870 ;; Auto vars:     Size  Location     Type
   871 ;;		None
   872 ;; Return value:  Size  Location     Type
   873 ;;                  1    wreg      void 
   874 ;; Registers used:
   875 ;;		wreg, fsr1l, fsr1h, fsr2l, fsr2h, status,2, status,0, prodl, prodh, cstack
   876 ;; Tracked objects:
   877 ;;		On entry : 0/0
   878 ;;		On exit  : 0/0
   879 ;;		Unchanged: 0/0
   880 ;; Data sizes:     COMRAM   BANK0   BANK1   BANK2   BANK3   BANK4   BANK5   BANK6   BANK7   BANK8   BANK9  BANK10  BANK1
      +1  BANK12  BANK13  BANK14  BANK15
   881 ;;      Params:         0       0       0       0       0       0       0       0       0       0       0       0       
      +0       0       0       0       0
   882 ;;      Locals:         0       0       0       0       0       0       0       0       0       0       0       0       
      +0       0       0       0       0
   883 ;;      Temps:          0       0       0       0       0       0       0       0       0       0       0       0       
      +0       0       0       0       0
   884 ;;      Totals:         0       0       0       0       0       0       0       0       0       0       0       0       
      +0       0       0       0       0
   885 ;;Total ram usage:        0 bytes
   886 ;; Hardware stack levels used: 1
   887 ;; Hardware stack levels required when called: 4
   888 ;; This function calls:
   889 ;;		_led_init
   890 ;;		_push_button_init
   891 ;; This function is called by:
   892 ;;		_main
   893 ;; This function uses a non-reentrant model
   894 ;;
   895                           
   896                           	psect	text4
   897   001748                     __ptext4:
   898                           	callstack 0
   899   001748                     _app_init:
   900                           	callstack 26
   901   001748                     
   902                           ;_APP/application.c: 30: push_button_init(&push_btn_1);
   903   001748  0E26               	movlw	low _push_btn_1
   904   00174A  6E3D               	movwf	push_button_init@p_push_button^0,c
   905   00174C  ECB5  F00B         	call	_push_button_init	;wreg free
   906                           
   907                           ;_APP/application.c: 31: push_button_init(&push_btn_2);
   908   001750  0E1F               	movlw	low _push_btn_2
   909   001752  6E3D               	movwf	push_button_init@p_push_button^0,c
   910   001754  ECB5  F00B         	call	_push_button_init	;wreg free
   911   001758                     
   912                           ;_APP/application.c: 32: led_init(&led_1);
   913   001758  0E30               	movlw	low _led_1
   914   00175A  6E41               	movwf	led_init@p_led^0,c
   915   00175C  EC18  F00B         	call	_led_init	;wreg free
   916   001760                     
   917                           ;_APP/application.c: 33: led_init(&led_2);
   918   001760  0E2D               	movlw	low _led_2
   919   001762  6E41               	movwf	led_init@p_led^0,c
   920   001764  EC18  F00B         	call	_led_init	;wreg free
   921   001768  0012               	return		;funcret
   922   00176A                     __end_of_app_init:
   923                           	callstack 0
   924                           
   925 ;; *************** function _push_button_init *****************
   926 ;; Defined at:
   927 ;;		line 28 in file "_HAL/Drivers/button/button.c"
   928 ;; Parameters:    Size  Location     Type
   929 ;;  p_push_butto    1    8[COMRAM] PTR struct .
   930 ;;		 -> push_btn_2(7), push_btn_1(7), 
   931 ;; Auto vars:     Size  Location     Type
   932 ;;		None
   933 ;; Return value:  Size  Location     Type
   934 ;;                  1    wreg      enum E2804
   935 ;; Registers used:
   936 ;;		wreg, fsr2l, fsr2h, status,2, status,0, prodl, prodh, cstack
   937 ;; Tracked objects:
   938 ;;		On entry : 0/0
   939 ;;		On exit  : 0/0
   940 ;;		Unchanged: 0/0
   941 ;; Data sizes:     COMRAM   BANK0   BANK1   BANK2   BANK3   BANK4   BANK5   BANK6   BANK7   BANK8   BANK9  BANK10  BANK1
      +1  BANK12  BANK13  BANK14  BANK15
   942 ;;      Params:         1       0       0       0       0       0       0       0       0       0       0       0       
      +0       0       0       0       0
   943 ;;      Locals:         0       0       0       0       0       0       0       0       0       0       0       0       
      +0       0       0       0       0
   944 ;;      Temps:          0       0       0       0       0       0       0       0       0       0       0       0       
      +0       0       0       0       0
   945 ;;      Totals:         1       0       0       0       0       0       0       0       0       0       0       0       
      +0       0       0       0       0
   946 ;;Total ram usage:        1 bytes
   947 ;; Hardware stack levels used: 1
   948 ;; Hardware stack levels required when called: 2
   949 ;; This function calls:
   950 ;;		_gpio_pin_direction_initialize
   951 ;; This function is called by:
   952 ;;		_app_init
   953 ;; This function uses a non-reentrant model
   954 ;;
   955                           
   956                           	psect	text5
   957   00176A                     __ptext5:
   958                           	callstack 0
   959   00176A                     _push_button_init:
   960                           	callstack 27
   961   00176A                     
   962                           ;_HAL/Drivers/button/button.c: 28: std_return push_button_init(push_button_t * p_push_bu
      +                          tton);_HAL/Drivers/button/button.c: 29: {;_HAL/Drivers/button/button.c: 30:   if(((void*
      +                          )0) == p_push_button)
   963   00176A  503D               	movf	push_button_init@p_push_button^0,w,c
   964   00176C  A4D8               	btfss	status,2,c
   965   00176E  EFBB  F00B         	goto	u461
   966   001772  EFBD  F00B         	goto	u460
   967   001776                     u461:
   968   001776  EFBF  F00B         	goto	l1706
   969   00177A                     u460:
   970   00177A  EFC3  F00B         	goto	l99
   971   00177E                     l1706:
   972                           
   973                           ;_HAL/Drivers/button/button.c: 35:     {;_HAL/Drivers/button/button.c: 36:        gpio_p
      +                          in_direction_initialize(&p_push_button->button_pin);
   974   00177E  C03D  F03A         	movff	push_button_init@p_push_button,gpio_pin_direction_initialize@p_pin_config
   975   001782  ECEA  F009         	call	_gpio_pin_direction_initialize	;wreg free
   976   001786                     l99:
   977   001786  0012               	return		;funcret
   978   001788                     __end_of_push_button_init:
   979                           	callstack 0
   980                           
   981 ;; *************** function _led_init *****************
   982 ;; Defined at:
   983 ;;		line 29 in file "_HAL/Drivers/LED/LED.c"
   984 ;; Parameters:    Size  Location     Type
   985 ;;  p_led           1   12[COMRAM] PTR struct .
   986 ;;		 -> led_2(3), led_1(3), 
   987 ;; Auto vars:     Size  Location     Type
   988 ;;  led_pin         5   13[COMRAM] struct .
   989 ;;  func_return     1    0        enum E2804
   990 ;; Return value:  Size  Location     Type
   991 ;;                  1    wreg      enum E2804
   992 ;; Registers used:
   993 ;;		wreg, fsr1l, fsr1h, fsr2l, fsr2h, status,2, status,0, prodl, prodh, cstack
   994 ;; Tracked objects:
   995 ;;		On entry : 0/0
   996 ;;		On exit  : 0/0
   997 ;;		Unchanged: 0/0
   998 ;; Data sizes:     COMRAM   BANK0   BANK1   BANK2   BANK3   BANK4   BANK5   BANK6   BANK7   BANK8   BANK9  BANK10  BANK1
      +1  BANK12  BANK13  BANK14  BANK15
   999 ;;      Params:         1       0       0       0       0       0       0       0       0       0       0       0       
      +0       0       0       0       0
  1000 ;;      Locals:         5       0       0       0       0       0       0       0       0       0       0       0       
      +0       0       0       0       0
  1001 ;;      Temps:          0       0       0       0       0       0       0       0       0       0       0       0       
      +0       0       0       0       0
  1002 ;;      Totals:         6       0       0       0       0       0       0       0       0       0       0       0       
      +0       0       0       0       0
  1003 ;;Total ram usage:        6 bytes
  1004 ;; Hardware stack levels used: 1
  1005 ;; Hardware stack levels required when called: 3
  1006 ;; This function calls:
  1007 ;;		_gpio_pin_initialize
  1008 ;; This function is called by:
  1009 ;;		_app_init
  1010 ;; This function uses a non-reentrant model
  1011 ;;
  1012                           
  1013                           	psect	text6
  1014   001630                     __ptext6:
  1015                           	callstack 0
  1016   001630                     _led_init:
  1017                           	callstack 26
  1018   001630                     
  1019                           ;_HAL/Drivers/LED/LED.c: 29: std_return led_init(led_t * p_led);_HAL/Drivers/LED/LED.c: 
      +                          30: {;_HAL/Drivers/LED/LED.c: 31:     if(((void*)0) == p_led)
  1020   001630  5041               	movf	led_init@p_led^0,w,c
  1021   001632  A4D8               	btfss	status,2,c
  1022   001634  EF1E  F00B         	goto	u471
  1023   001638  EF20  F00B         	goto	u470
  1024   00163C                     u471:
  1025   00163C  EF22  F00B         	goto	l1716
  1026   001640                     u470:
  1027   001640  EF44  F00B         	goto	l157
  1028   001644                     l1716:
  1029                           
  1030                           ;_HAL/Drivers/LED/LED.c: 36:     {;_HAL/Drivers/LED/LED.c: 37:         std_return func_r
      +                          eturn;;_HAL/Drivers/LED/LED.c: 38:         pin_config_t led_pin = {.direction= DIRECTION
      +                          _OUTPUT,
  1031   001644  EE20  F051         	lfsr	2,led_init@F2933
  1032   001648  EE10  F042         	lfsr	1,led_init@led_pin
  1033   00164C  0E04               	movlw	4
  1034   00164E                     u481:
  1035   00164E  CFDB FFE3          	movff	plusw2,plusw1
  1036   001652  06E8               	decf	wreg,f,c
  1037   001654  E2FC               	bc	u481
  1038   001656  5041               	movf	led_init@p_led^0,w,c
  1039   001658  6ED9               	movwf	fsr2l,c
  1040   00165A  6ADA               	clrf	fsr2h,c
  1041   00165C  50DF               	movf	indf2,w,c
  1042   00165E  6E42               	movwf	led_init@led_pin^0,c
  1043   001660  5041               	movf	led_init@p_led^0,w,c
  1044   001662  6ED9               	movwf	fsr2l,c
  1045   001664  6ADA               	clrf	fsr2h,c
  1046   001666  0E01               	movlw	1
  1047   001668  26D9               	addwf	fsr2l,f,c
  1048   00166A  50DF               	movf	indf2,w,c
  1049   00166C  6E43               	movwf	(led_init@led_pin+1)^0,c
  1050   00166E  0E00               	movlw	0
  1051   001670  6E44               	movwf	(led_init@led_pin+2)^0,c
  1052   001672  5041               	movf	led_init@p_led^0,w,c
  1053   001674  6ED9               	movwf	fsr2l,c
  1054   001676  6ADA               	clrf	fsr2h,c
  1055   001678  0E02               	movlw	2
  1056   00167A  26D9               	addwf	fsr2l,f,c
  1057   00167C  50DF               	movf	indf2,w,c
  1058   00167E  6E45               	movwf	(led_init@led_pin+3)^0,c
  1059   001680  0E42               	movlw	low led_init@led_pin
  1060   001682  6E3E               	movwf	gpio_pin_initialize@p_pin_config^0,c
  1061   001684  ECDA  F00A         	call	_gpio_pin_initialize	;wreg free
  1062   001688                     l157:
  1063   001688  0012               	return		;funcret
  1064   00168A                     __end_of_led_init:
  1065                           	callstack 0
  1066                           
  1067 ;; *************** function _gpio_pin_initialize *****************
  1068 ;; Defined at:
  1069 ;;		line 293 in file "_HAL/MCAL/GPIO/HAL_GPIO.c"
  1070 ;; Parameters:    Size  Location     Type
  1071 ;;  p_pin_config    1    9[COMRAM] PTR struct .
  1072 ;;		 -> led_init@led_pin(5), 
  1073 ;; Auto vars:     Size  Location     Type
  1074 ;;		None
  1075 ;; Return value:  Size  Location     Type
  1076 ;;                  1    wreg      enum E2804
  1077 ;; Registers used:
  1078 ;;		wreg, fsr2l, fsr2h, status,2, status,0, prodl, prodh, cstack
  1079 ;; Tracked objects:
  1080 ;;		On entry : 0/0
  1081 ;;		On exit  : 0/0
  1082 ;;		Unchanged: 0/0
  1083 ;; Data sizes:     COMRAM   BANK0   BANK1   BANK2   BANK3   BANK4   BANK5   BANK6   BANK7   BANK8   BANK9  BANK10  BANK1
      +1  BANK12  BANK13  BANK14  BANK15
  1084 ;;      Params:         1       0       0       0       0       0       0       0       0       0       0       0       
      +0       0       0       0       0
  1085 ;;      Locals:         0       0       0       0       0       0       0       0       0       0       0       0       
      +0       0       0       0       0
  1086 ;;      Temps:          2       0       0       0       0       0       0       0       0       0       0       0       
      +0       0       0       0       0
  1087 ;;      Totals:         3       0       0       0       0       0       0       0       0       0       0       0       
      +0       0       0       0       0
  1088 ;;Total ram usage:        3 bytes
  1089 ;; Hardware stack levels used: 1
  1090 ;; Hardware stack levels required when called: 2
  1091 ;; This function calls:
  1092 ;;		_gpio_pin_direction_initialize
  1093 ;;		_gpio_pin_write_logic
  1094 ;; This function is called by:
  1095 ;;		_led_init
  1096 ;; This function uses a non-reentrant model
  1097 ;;
  1098                           
  1099                           	psect	text7
  1100   0015B4                     __ptext7:
  1101                           	callstack 0
  1102   0015B4                     _gpio_pin_initialize:
  1103                           	callstack 26
  1104   0015B4                     
  1105                           ;_HAL/MCAL/GPIO/HAL_GPIO.c: 293: std_return gpio_pin_initialize(pin_config_t * p_pin_con
      +                          fig);_HAL/MCAL/GPIO/HAL_GPIO.c: 294: {;_HAL/MCAL/GPIO/HAL_GPIO.c: 297:     if(((void*)0)
      +                           == p_pin_config)
  1106   0015B4  503E               	movf	gpio_pin_initialize@p_pin_config^0,w,c
  1107   0015B6  A4D8               	btfss	status,2,c
  1108   0015B8  EFE0  F00A         	goto	u451
  1109   0015BC  EFE2  F00A         	goto	u450
  1110   0015C0                     u451:
  1111   0015C0  EFFC  F00A         	goto	l1690
  1112   0015C4                     u450:
  1113   0015C4                     l1672:
  1114                           
  1115                           ;_HAL/MCAL/GPIO/HAL_GPIO.c: 298:     {;_HAL/MCAL/GPIO/HAL_GPIO.c: 299:         return EX
      +                          CUTION_NOT_OK;
  1116   0015C4  0E01               	movlw	1
  1117   0015C6  EF17  F00B         	goto	l302
  1118   0015CA                     l1678:
  1119                           
  1120                           ;_HAL/MCAL/GPIO/HAL_GPIO.c: 306:                 gpio_pin_direction_initialize(p_pin_con
      +                          fig);
  1121   0015CA  C03E  F03A         	movff	gpio_pin_initialize@p_pin_config,gpio_pin_direction_initialize@p_pin_config
  1122   0015CE  ECEA  F009         	call	_gpio_pin_direction_initialize	;wreg free
  1123                           
  1124                           ;_HAL/MCAL/GPIO/HAL_GPIO.c: 307:                 break;
  1125   0015D2  EF16  F00B         	goto	l1692
  1126   0015D6                     l1680:
  1127                           
  1128                           ;_HAL/MCAL/GPIO/HAL_GPIO.c: 309:                 gpio_pin_direction_initialize(p_pin_con
      +                          fig);
  1129   0015D6  C03E  F03A         	movff	gpio_pin_initialize@p_pin_config,gpio_pin_direction_initialize@p_pin_config
  1130   0015DA  ECEA  F009         	call	_gpio_pin_direction_initialize	;wreg free
  1131                           
  1132                           ;_HAL/MCAL/GPIO/HAL_GPIO.c: 310:                 gpio_pin_write_logic(p_pin_config,p_pin
      +                          _config->logic);
  1133   0015DE  C03E  F03A         	movff	gpio_pin_initialize@p_pin_config,gpio_pin_write_logic@p_pin_config
  1134   0015E2  503E               	movf	gpio_pin_initialize@p_pin_config^0,w,c
  1135   0015E4  6ED9               	movwf	fsr2l,c
  1136   0015E6  6ADA               	clrf	fsr2h,c
  1137   0015E8  0E03               	movlw	3
  1138   0015EA  26D9               	addwf	fsr2l,f,c
  1139   0015EC  50DF               	movf	indf2,w,c
  1140   0015EE  6E3B               	movwf	gpio_pin_write_logic@d_logic_desired^0,c
  1141   0015F0  EC7F  F008         	call	_gpio_pin_write_logic	;wreg free
  1142                           
  1143                           ;_HAL/MCAL/GPIO/HAL_GPIO.c: 311:                 break;
  1144   0015F4  EF16  F00B         	goto	l1692
  1145   0015F8                     l1690:
  1146   0015F8  503E               	movf	gpio_pin_initialize@p_pin_config^0,w,c
  1147   0015FA  6ED9               	movwf	fsr2l,c
  1148   0015FC  6ADA               	clrf	fsr2h,c
  1149   0015FE  0E02               	movlw	2
  1150   001600  26D9               	addwf	fsr2l,f,c
  1151   001602  50DF               	movf	indf2,w,c
  1152   001604  6E3F               	movwf	??_gpio_pin_initialize^0,c
  1153   001606  6A40               	clrf	(??_gpio_pin_initialize+1)^0,c
  1154                           
  1155                           ; Switch on 2 bytes has been partitioned into a top level switch of size 1, and 1 sub-sw
      +                          itches
  1156                           ; Switch size 1, requested type "simple"
  1157                           ; Number of cases is 1, Range of values is 0 to 0
  1158                           ; switch strategies available:
  1159                           ; Name         Instructions Cycles
  1160                           ; simple_byte            4     3 (average)
  1161                           ;	Chosen strategy is simple_byte
  1162   001608  5040               	movf	(??_gpio_pin_initialize+1)^0,w,c
  1163   00160A  0A00               	xorlw	0	; case 0
  1164   00160C  B4D8               	btfsc	status,2,c
  1165   00160E  EF0B  F00B         	goto	l1854
  1166   001612  EFE2  F00A         	goto	l1672
  1167   001616                     l1854:
  1168                           
  1169                           ; Switch size 1, requested type "simple"
  1170                           ; Number of cases is 2, Range of values is 0 to 1
  1171                           ; switch strategies available:
  1172                           ; Name         Instructions Cycles
  1173                           ; simple_byte            7     4 (average)
  1174                           ;	Chosen strategy is simple_byte
  1175   001616  503F               	movf	??_gpio_pin_initialize^0,w,c
  1176   001618  0A00               	xorlw	0	; case 0
  1177   00161A  B4D8               	btfsc	status,2,c
  1178   00161C  EFEB  F00A         	goto	l1680
  1179   001620  0A01               	xorlw	1	; case 1
  1180   001622  B4D8               	btfsc	status,2,c
  1181   001624  EFE5  F00A         	goto	l1678
  1182   001628  EFE2  F00A         	goto	l1672
  1183   00162C                     l1692:
  1184                           
  1185                           ;_HAL/MCAL/GPIO/HAL_GPIO.c: 317:     return EXCUTION_OK;
  1186   00162C  0E00               	movlw	0
  1187   00162E                     l302:
  1188   00162E  0012               	return		;funcret
  1189   001630                     __end_of_gpio_pin_initialize:
  1190                           	callstack 0
  1191                           
  1192 ;; *************** function _gpio_pin_write_logic *****************
  1193 ;; Defined at:
  1194 ;;		line 204 in file "_HAL/MCAL/GPIO/HAL_GPIO.c"
  1195 ;; Parameters:    Size  Location     Type
  1196 ;;  p_pin_config    1    5[COMRAM] PTR struct .
  1197 ;;		 -> led_on_off@led_pin(5), led_init@led_pin(5), 
  1198 ;;  d_logic_desi    1    6[COMRAM] const enum E2821
  1199 ;; Auto vars:     Size  Location     Type
  1200 ;;		None
  1201 ;; Return value:  Size  Location     Type
  1202 ;;                  1    wreg      enum E2804
  1203 ;; Registers used:
  1204 ;;		wreg, fsr2l, fsr2h, status,2, status,0, prodl, prodh, cstack
  1205 ;; Tracked objects:
  1206 ;;		On entry : 0/0
  1207 ;;		On exit  : 0/0
  1208 ;;		Unchanged: 0/0
  1209 ;; Data sizes:     COMRAM   BANK0   BANK1   BANK2   BANK3   BANK4   BANK5   BANK6   BANK7   BANK8   BANK9  BANK10  BANK1
      +1  BANK12  BANK13  BANK14  BANK15
  1210 ;;      Params:         2       0       0       0       0       0       0       0       0       0       0       0       
      +0       0       0       0       0
  1211 ;;      Locals:         0       0       0       0       0       0       0       0       0       0       0       0       
      +0       0       0       0       0
  1212 ;;      Temps:          2       0       0       0       0       0       0       0       0       0       0       0       
      +0       0       0       0       0
  1213 ;;      Totals:         4       0       0       0       0       0       0       0       0       0       0       0       
      +0       0       0       0       0
  1214 ;;Total ram usage:        4 bytes
  1215 ;; Hardware stack levels used: 1
  1216 ;; Hardware stack levels required when called: 1
  1217 ;; This function calls:
  1218 ;;		_clear_bit_uint8
  1219 ;;		_set_bit_uint8
  1220 ;; This function is called by:
  1221 ;;		_led_on_off
  1222 ;;		_gpio_pin_initialize
  1223 ;; This function uses a non-reentrant model
  1224 ;;
  1225                           
  1226                           	psect	text8
  1227   0010FE                     __ptext8:
  1228                           	callstack 0
  1229   0010FE                     _gpio_pin_write_logic:
  1230                           	callstack 28
  1231   0010FE                     
  1232                           ;_HAL/MCAL/GPIO/HAL_GPIO.c: 204: std_return gpio_pin_write_logic( pin_config_t * p_pin_c
      +                          onfig,;_HAL/MCAL/GPIO/HAL_GPIO.c: 205:                                  const LOGIC_t d_
      +                          logic_desired);_HAL/MCAL/GPIO/HAL_GPIO.c: 206: {;_HAL/MCAL/GPIO/HAL_GPIO.c: 207:     if(
      +                          (((void*)0) == p_pin_config) ||
  1233   0010FE  503A               	movf	gpio_pin_write_logic@p_pin_config^0,w,c
  1234   001100  B4D8               	btfsc	status,2,c
  1235   001102  EF85  F008         	goto	u411
  1236   001106  EF87  F008         	goto	u410
  1237   00110A                     u411:
  1238   00110A  EFF7  F008         	goto	l276
  1239   00110E                     u410:
  1240   00110E  503A               	movf	gpio_pin_write_logic@p_pin_config^0,w,c
  1241   001110  6ED9               	movwf	fsr2l,c
  1242   001112  6ADA               	clrf	fsr2h,c
  1243   001114  0E05               	movlw	5
  1244   001116  60DF               	cpfslt	indf2,c
  1245   001118  EF90  F008         	goto	u421
  1246   00111C  EF92  F008         	goto	u420
  1247   001120                     u421:
  1248   001120  EFF7  F008         	goto	l276
  1249   001124                     u420:
  1250   001124  043B               	decf	gpio_pin_write_logic@d_logic_desired^0,w,c
  1251   001126  B4D8               	btfsc	status,2,c
  1252   001128  EF98  F008         	goto	u431
  1253   00112C  EF9A  F008         	goto	u430
  1254   001130                     u431:
  1255   001130  EFE2  F008         	goto	l1664
  1256   001134                     u430:
  1257   001134  503B               	movf	gpio_pin_write_logic@d_logic_desired^0,w,c
  1258   001136  B4D8               	btfsc	status,2,c
  1259   001138  EFA0  F008         	goto	u441
  1260   00113C  EFA2  F008         	goto	u440
  1261   001140                     u441:
  1262   001140  EFE2  F008         	goto	l1664
  1263   001144                     u440:
  1264   001144  EFF7  F008         	goto	l276
  1265   001148                     l1652:
  1266                           
  1267                           ;_HAL/MCAL/GPIO/HAL_GPIO.c: 218:                p_pin_config->logic = d_logic_desired;
  1268   001148  503A               	movf	gpio_pin_write_logic@p_pin_config^0,w,c
  1269   00114A  6ED9               	movwf	fsr2l,c
  1270   00114C  6ADA               	clrf	fsr2h,c
  1271   00114E  0E03               	movlw	3
  1272   001150  26D9               	addwf	fsr2l,f,c
  1273   001152  C03B  FFDF         	movff	gpio_pin_write_logic@d_logic_desired,indf2
  1274   001156                     
  1275                           ;_HAL/MCAL/GPIO/HAL_GPIO.c: 219:                set_bit_uint8(LAT_REG_ADD_arr[p_pin_conf
      +                          ig->port], (IDX_BIT_X_t)p_pin_config->pin_num);
  1276   001156  503A               	movf	gpio_pin_write_logic@p_pin_config^0,w,c
  1277   001158  6ED9               	movwf	fsr2l,c
  1278   00115A  6ADA               	clrf	fsr2h,c
  1279   00115C  50DF               	movf	indf2,w,c
  1280   00115E  0D02               	mullw	2
  1281   001160  50F3               	movf	243,w,c
  1282   001162  0F01               	addlw	low _LAT_REG_ADD_arr
  1283   001164  6ED9               	movwf	fsr2l,c
  1284   001166  6ADA               	clrf	fsr2h,c
  1285   001168  CFDE F035          	movff	postinc2,set_bit_uint8@p_reg
  1286   00116C  CFDD F036          	movff	postdec2,set_bit_uint8@p_reg+1
  1287   001170  503A               	movf	gpio_pin_write_logic@p_pin_config^0,w,c
  1288   001172  6ED9               	movwf	fsr2l,c
  1289   001174  6ADA               	clrf	fsr2h,c
  1290   001176  0E01               	movlw	1
  1291   001178  26D9               	addwf	fsr2l,f,c
  1292   00117A  50DF               	movf	indf2,w,c
  1293   00117C  6E37               	movwf	set_bit_uint8@d_IDX_BIT_X^0,c
  1294   00117E  ECF8  F008         	call	_set_bit_uint8	;wreg free
  1295                           
  1296                           ;_HAL/MCAL/GPIO/HAL_GPIO.c: 220:                break;
  1297   001182  EFF7  F008         	goto	l276
  1298   001186                     l1656:
  1299                           
  1300                           ;_HAL/MCAL/GPIO/HAL_GPIO.c: 223:                p_pin_config->logic = d_logic_desired;
  1301   001186  503A               	movf	gpio_pin_write_logic@p_pin_config^0,w,c
  1302   001188  6ED9               	movwf	fsr2l,c
  1303   00118A  6ADA               	clrf	fsr2h,c
  1304   00118C  0E03               	movlw	3
  1305   00118E  26D9               	addwf	fsr2l,f,c
  1306   001190  C03B  FFDF         	movff	gpio_pin_write_logic@d_logic_desired,indf2
  1307   001194                     
  1308                           ;_HAL/MCAL/GPIO/HAL_GPIO.c: 224:                clear_bit_uint8(LAT_REG_ADD_arr[p_pin_co
      +                          nfig->port], (IDX_BIT_X_t)p_pin_config->pin_num);
  1309   001194  503A               	movf	gpio_pin_write_logic@p_pin_config^0,w,c
  1310   001196  6ED9               	movwf	fsr2l,c
  1311   001198  6ADA               	clrf	fsr2h,c
  1312   00119A  50DF               	movf	indf2,w,c
  1313   00119C  0D02               	mullw	2
  1314   00119E  50F3               	movf	243,w,c
  1315   0011A0  0F01               	addlw	low _LAT_REG_ADD_arr
  1316   0011A2  6ED9               	movwf	fsr2l,c
  1317   0011A4  6ADA               	clrf	fsr2h,c
  1318   0011A6  CFDE F035          	movff	postinc2,clear_bit_uint8@p_reg
  1319   0011AA  CFDD F036          	movff	postdec2,clear_bit_uint8@p_reg+1
  1320   0011AE  503A               	movf	gpio_pin_write_logic@p_pin_config^0,w,c
  1321   0011B0  6ED9               	movwf	fsr2l,c
  1322   0011B2  6ADA               	clrf	fsr2h,c
  1323   0011B4  0E01               	movlw	1
  1324   0011B6  26D9               	addwf	fsr2l,f,c
  1325   0011B8  50DF               	movf	indf2,w,c
  1326   0011BA  6E37               	movwf	clear_bit_uint8@d_IDX_BIT_X^0,c
  1327   0011BC  EC71  F009         	call	_clear_bit_uint8	;wreg free
  1328                           
  1329                           ;_HAL/MCAL/GPIO/HAL_GPIO.c: 225:                break;
  1330   0011C0  EFF7  F008         	goto	l276
  1331   0011C4                     l1664:
  1332   0011C4  503B               	movf	gpio_pin_write_logic@d_logic_desired^0,w,c
  1333   0011C6  6E3C               	movwf	??_gpio_pin_write_logic^0,c
  1334   0011C8  6A3D               	clrf	(??_gpio_pin_write_logic+1)^0,c
  1335                           
  1336                           ; Switch on 2 bytes has been partitioned into a top level switch of size 1, and 1 sub-sw
      +                          itches
  1337                           ; Switch size 1, requested type "simple"
  1338                           ; Number of cases is 1, Range of values is 0 to 0
  1339                           ; switch strategies available:
  1340                           ; Name         Instructions Cycles
  1341                           ; simple_byte            4     3 (average)
  1342                           ;	Chosen strategy is simple_byte
  1343   0011CA  503D               	movf	(??_gpio_pin_write_logic+1)^0,w,c
  1344   0011CC  0A00               	xorlw	0	; case 0
  1345   0011CE  B4D8               	btfsc	status,2,c
  1346   0011D0  EFEC  F008         	goto	l1856
  1347   0011D4  EFF7  F008         	goto	l276
  1348   0011D8                     l1856:
  1349                           
  1350                           ; Switch size 1, requested type "simple"
  1351                           ; Number of cases is 2, Range of values is 0 to 1
  1352                           ; switch strategies available:
  1353                           ; Name         Instructions Cycles
  1354                           ; simple_byte            7     4 (average)
  1355                           ;	Chosen strategy is simple_byte
  1356   0011D8  503C               	movf	??_gpio_pin_write_logic^0,w,c
  1357   0011DA  0A00               	xorlw	0	; case 0
  1358   0011DC  B4D8               	btfsc	status,2,c
  1359   0011DE  EFC3  F008         	goto	l1656
  1360   0011E2  0A01               	xorlw	1	; case 1
  1361   0011E4  B4D8               	btfsc	status,2,c
  1362   0011E6  EFA4  F008         	goto	l1652
  1363   0011EA  EFF7  F008         	goto	l276
  1364   0011EE                     l276:
  1365   0011EE  0012               	return		;funcret
  1366   0011F0                     __end_of_gpio_pin_write_logic:
  1367                           	callstack 0
  1368                           
  1369 ;; *************** function _gpio_pin_direction_initialize *****************
  1370 ;; Defined at:
  1371 ;;		line 174 in file "_HAL/MCAL/GPIO/HAL_GPIO.c"
  1372 ;; Parameters:    Size  Location     Type
  1373 ;;  p_pin_config    1    5[COMRAM] PTR const struct .
  1374 ;;		 -> led_init@led_pin(5), push_btn_2$button_pin(5), push_btn_2(7), push_btn_1$button_pin(5), 
  1375 ;;		 -> push_btn_1(7), 
  1376 ;; Auto vars:     Size  Location     Type
  1377 ;;		None
  1378 ;; Return value:  Size  Location     Type
  1379 ;;                  1    wreg      enum E2804
  1380 ;; Registers used:
  1381 ;;		wreg, fsr2l, fsr2h, status,2, status,0, prodl, prodh, cstack
  1382 ;; Tracked objects:
  1383 ;;		On entry : 0/0
  1384 ;;		On exit  : 0/0
  1385 ;;		Unchanged: 0/0
  1386 ;; Data sizes:     COMRAM   BANK0   BANK1   BANK2   BANK3   BANK4   BANK5   BANK6   BANK7   BANK8   BANK9  BANK10  BANK1
      +1  BANK12  BANK13  BANK14  BANK15
  1387 ;;      Params:         1       0       0       0       0       0       0       0       0       0       0       0       
      +0       0       0       0       0
  1388 ;;      Locals:         0       0       0       0       0       0       0       0       0       0       0       0       
      +0       0       0       0       0
  1389 ;;      Temps:          2       0       0       0       0       0       0       0       0       0       0       0       
      +0       0       0       0       0
  1390 ;;      Totals:         3       0       0       0       0       0       0       0       0       0       0       0       
      +0       0       0       0       0
  1391 ;;Total ram usage:        3 bytes
  1392 ;; Hardware stack levels used: 1
  1393 ;; Hardware stack levels required when called: 1
  1394 ;; This function calls:
  1395 ;;		_clear_bit_uint8
  1396 ;;		_set_bit_uint8
  1397 ;; This function is called by:
  1398 ;;		_push_button_init
  1399 ;;		_gpio_pin_initialize
  1400 ;; This function uses a non-reentrant model
  1401 ;;
  1402                           
  1403                           	psect	text9
  1404   0013D4                     __ptext9:
  1405                           	callstack 0
  1406   0013D4                     _gpio_pin_direction_initialize:
  1407                           	callstack 27
  1408   0013D4                     
  1409                           ;_HAL/MCAL/GPIO/HAL_GPIO.c: 176:     if((((void*)0) == p_pin_config) || (p_pin_config->p
      +                          ort > PORT_MAX_NUM-1)){
  1410   0013D4  503A               	movf	gpio_pin_direction_initialize@p_pin_config^0,w,c
  1411   0013D6  B4D8               	btfsc	status,2,c
  1412   0013D8  EFF0  F009         	goto	u391
  1413   0013DC  EFF2  F009         	goto	u390
  1414   0013E0                     u391:
  1415   0013E0  EF49  F00A         	goto	l264
  1416   0013E4                     u390:
  1417   0013E4  503A               	movf	gpio_pin_direction_initialize@p_pin_config^0,w,c
  1418   0013E6  6ED9               	movwf	fsr2l,c
  1419   0013E8  6ADA               	clrf	fsr2h,c
  1420   0013EA  0E04               	movlw	4
  1421   0013EC  64DF               	cpfsgt	indf2,c
  1422   0013EE  EFFB  F009         	goto	u401
  1423   0013F2  EFFD  F009         	goto	u400
  1424   0013F6                     u401:
  1425   0013F6  EF2F  F00A         	goto	l1636
  1426   0013FA                     u400:
  1427   0013FA  EF49  F00A         	goto	l264
  1428   0013FE                     l1628:
  1429                           
  1430                           ;_HAL/MCAL/GPIO/HAL_GPIO.c: 183:                clear_bit_uint8(TRIS_REG_ADD_arr[p_pin_c
      +                          onfig->port], (IDX_BIT_X_t)p_pin_config->pin_num);
  1431   0013FE  503A               	movf	gpio_pin_direction_initialize@p_pin_config^0,w,c
  1432   001400  6ED9               	movwf	fsr2l,c
  1433   001402  6ADA               	clrf	fsr2h,c
  1434   001404  50DF               	movf	indf2,w,c
  1435   001406  0D02               	mullw	2
  1436   001408  50F3               	movf	243,w,c
  1437   00140A  0F15               	addlw	low _TRIS_REG_ADD_arr
  1438   00140C  6ED9               	movwf	fsr2l,c
  1439   00140E  6ADA               	clrf	fsr2h,c
  1440   001410  CFDE F035          	movff	postinc2,clear_bit_uint8@p_reg
  1441   001414  CFDD F036          	movff	postdec2,clear_bit_uint8@p_reg+1
  1442   001418  503A               	movf	gpio_pin_direction_initialize@p_pin_config^0,w,c
  1443   00141A  6ED9               	movwf	fsr2l,c
  1444   00141C  6ADA               	clrf	fsr2h,c
  1445   00141E  0E01               	movlw	1
  1446   001420  26D9               	addwf	fsr2l,f,c
  1447   001422  50DF               	movf	indf2,w,c
  1448   001424  6E37               	movwf	clear_bit_uint8@d_IDX_BIT_X^0,c
  1449   001426  EC71  F009         	call	_clear_bit_uint8	;wreg free
  1450                           
  1451                           ;_HAL/MCAL/GPIO/HAL_GPIO.c: 184:                break;
  1452   00142A  EF49  F00A         	goto	l264
  1453   00142E                     l1630:
  1454                           
  1455                           ;_HAL/MCAL/GPIO/HAL_GPIO.c: 187:                set_bit_uint8(TRIS_REG_ADD_arr[p_pin_con
      +                          fig->port], (IDX_BIT_X_t)p_pin_config->pin_num);
  1456   00142E  503A               	movf	gpio_pin_direction_initialize@p_pin_config^0,w,c
  1457   001430  6ED9               	movwf	fsr2l,c
  1458   001432  6ADA               	clrf	fsr2h,c
  1459   001434  50DF               	movf	indf2,w,c
  1460   001436  0D02               	mullw	2
  1461   001438  50F3               	movf	243,w,c
  1462   00143A  0F15               	addlw	low _TRIS_REG_ADD_arr
  1463   00143C  6ED9               	movwf	fsr2l,c
  1464   00143E  6ADA               	clrf	fsr2h,c
  1465   001440  CFDE F035          	movff	postinc2,set_bit_uint8@p_reg
  1466   001444  CFDD F036          	movff	postdec2,set_bit_uint8@p_reg+1
  1467   001448  503A               	movf	gpio_pin_direction_initialize@p_pin_config^0,w,c
  1468   00144A  6ED9               	movwf	fsr2l,c
  1469   00144C  6ADA               	clrf	fsr2h,c
  1470   00144E  0E01               	movlw	1
  1471   001450  26D9               	addwf	fsr2l,f,c
  1472   001452  50DF               	movf	indf2,w,c
  1473   001454  6E37               	movwf	set_bit_uint8@d_IDX_BIT_X^0,c
  1474   001456  ECF8  F008         	call	_set_bit_uint8	;wreg free
  1475                           
  1476                           ;_HAL/MCAL/GPIO/HAL_GPIO.c: 188:                break;
  1477   00145A  EF49  F00A         	goto	l264
  1478   00145E                     l1636:
  1479   00145E  503A               	movf	gpio_pin_direction_initialize@p_pin_config^0,w,c
  1480   001460  6ED9               	movwf	fsr2l,c
  1481   001462  6ADA               	clrf	fsr2h,c
  1482   001464  0E02               	movlw	2
  1483   001466  26D9               	addwf	fsr2l,f,c
  1484   001468  50DF               	movf	indf2,w,c
  1485   00146A  6E3B               	movwf	??_gpio_pin_direction_initialize^0,c
  1486   00146C  6A3C               	clrf	(??_gpio_pin_direction_initialize+1)^0,c
  1487                           
  1488                           ; Switch on 2 bytes has been partitioned into a top level switch of size 1, and 1 sub-sw
      +                          itches
  1489                           ; Switch size 1, requested type "simple"
  1490                           ; Number of cases is 1, Range of values is 0 to 0
  1491                           ; switch strategies available:
  1492                           ; Name         Instructions Cycles
  1493                           ; simple_byte            4     3 (average)
  1494                           ;	Chosen strategy is simple_byte
  1495   00146E  503C               	movf	(??_gpio_pin_direction_initialize+1)^0,w,c
  1496   001470  0A00               	xorlw	0	; case 0
  1497   001472  B4D8               	btfsc	status,2,c
  1498   001474  EF3E  F00A         	goto	l1858
  1499   001478  EF49  F00A         	goto	l264
  1500   00147C                     l1858:
  1501                           
  1502                           ; Switch size 1, requested type "simple"
  1503                           ; Number of cases is 2, Range of values is 0 to 1
  1504                           ; switch strategies available:
  1505                           ; Name         Instructions Cycles
  1506                           ; simple_byte            7     4 (average)
  1507                           ;	Chosen strategy is simple_byte
  1508   00147C  503B               	movf	??_gpio_pin_direction_initialize^0,w,c
  1509   00147E  0A00               	xorlw	0	; case 0
  1510   001480  B4D8               	btfsc	status,2,c
  1511   001482  EFFF  F009         	goto	l1628
  1512   001486  0A01               	xorlw	1	; case 1
  1513   001488  B4D8               	btfsc	status,2,c
  1514   00148A  EF17  F00A         	goto	l1630
  1515   00148E  EF49  F00A         	goto	l264
  1516   001492                     l264:
  1517   001492  0012               	return		;funcret
  1518   001494                     __end_of_gpio_pin_direction_initialize:
  1519                           	callstack 0
  1520                           
  1521 ;; *************** function _set_bit_uint8 *****************
  1522 ;; Defined at:
  1523 ;;		line 37 in file "_HAL/MCAL/GPIO/HAL_GPIO.c"
  1524 ;; Parameters:    Size  Location     Type
  1525 ;;  p_reg           2    0[COMRAM] PTR volatile unsigned ch
  1526 ;;		 -> LATE(1), LATD(1), LATC(1), LATB(1), 
  1527 ;;		 -> LATA(1), TRISE(1), TRISD(1), TRISC(1), 
  1528 ;;		 -> TRISB(1), TRISA(1), 
  1529 ;;  d_IDX_BIT_X     1    2[COMRAM] enum E2835
  1530 ;; Auto vars:     Size  Location     Type
  1531 ;;		None
  1532 ;; Return value:  Size  Location     Type
  1533 ;;                  1    wreg      enum E2804
  1534 ;; Registers used:
  1535 ;;		wreg, fsr2l, fsr2h, status,2, status,0
  1536 ;; Tracked objects:
  1537 ;;		On entry : 0/0
  1538 ;;		On exit  : 0/0
  1539 ;;		Unchanged: 0/0
  1540 ;; Data sizes:     COMRAM   BANK0   BANK1   BANK2   BANK3   BANK4   BANK5   BANK6   BANK7   BANK8   BANK9  BANK10  BANK1
      +1  BANK12  BANK13  BANK14  BANK15
  1541 ;;      Params:         3       0       0       0       0       0       0       0       0       0       0       0       
      +0       0       0       0       0
  1542 ;;      Locals:         0       0       0       0       0       0       0       0       0       0       0       0       
      +0       0       0       0       0
  1543 ;;      Temps:          2       0       0       0       0       0       0       0       0       0       0       0       
      +0       0       0       0       0
  1544 ;;      Totals:         5       0       0       0       0       0       0       0       0       0       0       0       
      +0       0       0       0       0
  1545 ;;Total ram usage:        5 bytes
  1546 ;; Hardware stack levels used: 1
  1547 ;; This function calls:
  1548 ;;		Nothing
  1549 ;; This function is called by:
  1550 ;;		_gpio_pin_direction_initialize
  1551 ;;		_gpio_pin_write_logic
  1552 ;; This function uses a non-reentrant model
  1553 ;;
  1554                           
  1555                           	psect	text10
  1556   0011F0                     __ptext10:
  1557                           	callstack 0
  1558   0011F0                     _set_bit_uint8:
  1559                           	callstack 28
  1560   0011F0                     
  1561                           ;_HAL/MCAL/GPIO/HAL_GPIO.c: 39:     if (((void*)0) == p_reg){
  1562   0011F0  5035               	movf	set_bit_uint8@p_reg^0,w,c
  1563   0011F2  1036               	iorwf	(set_bit_uint8@p_reg+1)^0,w,c
  1564   0011F4  A4D8               	btfss	status,2,c
  1565   0011F6  EFFF  F008         	goto	u371
  1566   0011FA  EF01  F009         	goto	u370
  1567   0011FE                     u371:
  1568   0011FE  EF43  F009         	goto	l1584
  1569   001202                     u370:
  1570   001202  EF70  F009         	goto	l214
  1571   001206                     l1564:
  1572                           
  1573                           ;_HAL/MCAL/GPIO/HAL_GPIO.c: 46:                 *p_reg |= (MASK_BIT_0);
  1574   001206  C035  FFD9         	movff	set_bit_uint8@p_reg,fsr2l
  1575   00120A  C036  FFDA         	movff	set_bit_uint8@p_reg+1,fsr2h
  1576   00120E  0E00               	movlw	0
  1577   001210  80DB               	bsf	plusw2,0,c
  1578                           
  1579                           ;_HAL/MCAL/GPIO/HAL_GPIO.c: 47:                 break;
  1580   001212  EF70  F009         	goto	l214
  1581   001216                     l1566:
  1582                           
  1583                           ;_HAL/MCAL/GPIO/HAL_GPIO.c: 49:                 *p_reg |= (MASK_BIT_1);
  1584   001216  C035  FFD9         	movff	set_bit_uint8@p_reg,fsr2l
  1585   00121A  C036  FFDA         	movff	set_bit_uint8@p_reg+1,fsr2h
  1586   00121E  0E00               	movlw	0
  1587   001220  82DB               	bsf	plusw2,1,c
  1588                           
  1589                           ;_HAL/MCAL/GPIO/HAL_GPIO.c: 50:                 break;
  1590   001222  EF70  F009         	goto	l214
  1591   001226                     l1568:
  1592                           
  1593                           ;_HAL/MCAL/GPIO/HAL_GPIO.c: 52:                 *p_reg |= (MASK_BIT_2);
  1594   001226  C035  FFD9         	movff	set_bit_uint8@p_reg,fsr2l
  1595   00122A  C036  FFDA         	movff	set_bit_uint8@p_reg+1,fsr2h
  1596   00122E  0E00               	movlw	0
  1597   001230  84DB               	bsf	plusw2,2,c
  1598                           
  1599                           ;_HAL/MCAL/GPIO/HAL_GPIO.c: 53:                 break;
  1600   001232  EF70  F009         	goto	l214
  1601   001236                     l1570:
  1602                           
  1603                           ;_HAL/MCAL/GPIO/HAL_GPIO.c: 55:                 *p_reg |= (MASK_BIT_3);
  1604   001236  C035  FFD9         	movff	set_bit_uint8@p_reg,fsr2l
  1605   00123A  C036  FFDA         	movff	set_bit_uint8@p_reg+1,fsr2h
  1606   00123E  0E00               	movlw	0
  1607   001240  86DB               	bsf	plusw2,3,c
  1608                           
  1609                           ;_HAL/MCAL/GPIO/HAL_GPIO.c: 56:                 break;
  1610   001242  EF70  F009         	goto	l214
  1611   001246                     l1572:
  1612                           
  1613                           ;_HAL/MCAL/GPIO/HAL_GPIO.c: 58:                 *p_reg |= (MASK_BIT_4);
  1614   001246  C035  FFD9         	movff	set_bit_uint8@p_reg,fsr2l
  1615   00124A  C036  FFDA         	movff	set_bit_uint8@p_reg+1,fsr2h
  1616   00124E  0E00               	movlw	0
  1617   001250  88DB               	bsf	plusw2,4,c
  1618                           
  1619                           ;_HAL/MCAL/GPIO/HAL_GPIO.c: 59:                 break;
  1620   001252  EF70  F009         	goto	l214
  1621   001256                     l1574:
  1622                           
  1623                           ;_HAL/MCAL/GPIO/HAL_GPIO.c: 61:                 *p_reg |= (MASK_BIT_5);
  1624   001256  C035  FFD9         	movff	set_bit_uint8@p_reg,fsr2l
  1625   00125A  C036  FFDA         	movff	set_bit_uint8@p_reg+1,fsr2h
  1626   00125E  0E00               	movlw	0
  1627   001260  8ADB               	bsf	plusw2,5,c
  1628                           
  1629                           ;_HAL/MCAL/GPIO/HAL_GPIO.c: 62:                 break;
  1630   001262  EF70  F009         	goto	l214
  1631   001266                     l1576:
  1632                           
  1633                           ;_HAL/MCAL/GPIO/HAL_GPIO.c: 64:                 *p_reg |= (MASK_BIT_6);
  1634   001266  C035  FFD9         	movff	set_bit_uint8@p_reg,fsr2l
  1635   00126A  C036  FFDA         	movff	set_bit_uint8@p_reg+1,fsr2h
  1636   00126E  0E00               	movlw	0
  1637   001270  8CDB               	bsf	plusw2,6,c
  1638                           
  1639                           ;_HAL/MCAL/GPIO/HAL_GPIO.c: 65:                 break;
  1640   001272  EF70  F009         	goto	l214
  1641   001276                     l1578:
  1642                           
  1643                           ;_HAL/MCAL/GPIO/HAL_GPIO.c: 67:                 *p_reg |= (MASK_BIT_7);
  1644   001276  C035  FFD9         	movff	set_bit_uint8@p_reg,fsr2l
  1645   00127A  C036  FFDA         	movff	set_bit_uint8@p_reg+1,fsr2h
  1646   00127E  0E00               	movlw	0
  1647   001280  8EDB               	bsf	plusw2,7,c
  1648                           
  1649                           ;_HAL/MCAL/GPIO/HAL_GPIO.c: 68:                 break;
  1650   001282  EF70  F009         	goto	l214
  1651   001286                     l1584:
  1652   001286  5037               	movf	set_bit_uint8@d_IDX_BIT_X^0,w,c
  1653   001288  6E38               	movwf	??_set_bit_uint8^0,c
  1654   00128A  6A39               	clrf	(??_set_bit_uint8+1)^0,c
  1655                           
  1656                           ; Switch on 2 bytes has been partitioned into a top level switch of size 1, and 1 sub-sw
      +                          itches
  1657                           ; Switch size 1, requested type "simple"
  1658                           ; Number of cases is 1, Range of values is 0 to 0
  1659                           ; switch strategies available:
  1660                           ; Name         Instructions Cycles
  1661                           ; simple_byte            4     3 (average)
  1662                           ;	Chosen strategy is simple_byte
  1663   00128C  5039               	movf	(??_set_bit_uint8+1)^0,w,c
  1664   00128E  0A00               	xorlw	0	; case 0
  1665   001290  B4D8               	btfsc	status,2,c
  1666   001292  EF4D  F009         	goto	l1860
  1667   001296  EF70  F009         	goto	l214
  1668   00129A                     l1860:
  1669                           
  1670                           ; Switch size 1, requested type "simple"
  1671                           ; Number of cases is 8, Range of values is 0 to 7
  1672                           ; switch strategies available:
  1673                           ; Name         Instructions Cycles
  1674                           ; simple_byte           25    13 (average)
  1675                           ;	Chosen strategy is simple_byte
  1676   00129A  5038               	movf	??_set_bit_uint8^0,w,c
  1677   00129C  0A00               	xorlw	0	; case 0
  1678   00129E  B4D8               	btfsc	status,2,c
  1679   0012A0  EF03  F009         	goto	l1564
  1680   0012A4  0A01               	xorlw	1	; case 1
  1681   0012A6  B4D8               	btfsc	status,2,c
  1682   0012A8  EF0B  F009         	goto	l1566
  1683   0012AC  0A03               	xorlw	3	; case 2
  1684   0012AE  B4D8               	btfsc	status,2,c
  1685   0012B0  EF13  F009         	goto	l1568
  1686   0012B4  0A01               	xorlw	1	; case 3
  1687   0012B6  B4D8               	btfsc	status,2,c
  1688   0012B8  EF1B  F009         	goto	l1570
  1689   0012BC  0A07               	xorlw	7	; case 4
  1690   0012BE  B4D8               	btfsc	status,2,c
  1691   0012C0  EF23  F009         	goto	l1572
  1692   0012C4  0A01               	xorlw	1	; case 5
  1693   0012C6  B4D8               	btfsc	status,2,c
  1694   0012C8  EF2B  F009         	goto	l1574
  1695   0012CC  0A03               	xorlw	3	; case 6
  1696   0012CE  B4D8               	btfsc	status,2,c
  1697   0012D0  EF33  F009         	goto	l1576
  1698   0012D4  0A01               	xorlw	1	; case 7
  1699   0012D6  B4D8               	btfsc	status,2,c
  1700   0012D8  EF3B  F009         	goto	l1578
  1701   0012DC  EF70  F009         	goto	l214
  1702   0012E0                     l214:
  1703   0012E0  0012               	return		;funcret
  1704   0012E2                     __end_of_set_bit_uint8:
  1705                           	callstack 0
  1706                           
  1707 ;; *************** function _clear_bit_uint8 *****************
  1708 ;; Defined at:
  1709 ;;		line 83 in file "_HAL/MCAL/GPIO/HAL_GPIO.c"
  1710 ;; Parameters:    Size  Location     Type
  1711 ;;  p_reg           2    0[COMRAM] PTR volatile unsigned ch
  1712 ;;		 -> LATE(1), LATD(1), LATC(1), LATB(1), 
  1713 ;;		 -> LATA(1), TRISE(1), TRISD(1), TRISC(1), 
  1714 ;;		 -> TRISB(1), TRISA(1), 
  1715 ;;  d_IDX_BIT_X     1    2[COMRAM] enum E2835
  1716 ;; Auto vars:     Size  Location     Type
  1717 ;;		None
  1718 ;; Return value:  Size  Location     Type
  1719 ;;                  1    wreg      enum E2804
  1720 ;; Registers used:
  1721 ;;		wreg, fsr2l, fsr2h, status,2, status,0
  1722 ;; Tracked objects:
  1723 ;;		On entry : 0/0
  1724 ;;		On exit  : 0/0
  1725 ;;		Unchanged: 0/0
  1726 ;; Data sizes:     COMRAM   BANK0   BANK1   BANK2   BANK3   BANK4   BANK5   BANK6   BANK7   BANK8   BANK9  BANK10  BANK1
      +1  BANK12  BANK13  BANK14  BANK15
  1727 ;;      Params:         3       0       0       0       0       0       0       0       0       0       0       0       
      +0       0       0       0       0
  1728 ;;      Locals:         0       0       0       0       0       0       0       0       0       0       0       0       
      +0       0       0       0       0
  1729 ;;      Temps:          2       0       0       0       0       0       0       0       0       0       0       0       
      +0       0       0       0       0
  1730 ;;      Totals:         5       0       0       0       0       0       0       0       0       0       0       0       
      +0       0       0       0       0
  1731 ;;Total ram usage:        5 bytes
  1732 ;; Hardware stack levels used: 1
  1733 ;; This function calls:
  1734 ;;		Nothing
  1735 ;; This function is called by:
  1736 ;;		_gpio_pin_direction_initialize
  1737 ;;		_gpio_pin_write_logic
  1738 ;; This function uses a non-reentrant model
  1739 ;;
  1740                           
  1741                           	psect	text11
  1742   0012E2                     __ptext11:
  1743                           	callstack 0
  1744   0012E2                     _clear_bit_uint8:
  1745                           	callstack 28
  1746   0012E2                     
  1747                           ;_HAL/MCAL/GPIO/HAL_GPIO.c: 85:      if (((void*)0) == p_reg){
  1748   0012E2  5035               	movf	clear_bit_uint8@p_reg^0,w,c
  1749   0012E4  1036               	iorwf	(clear_bit_uint8@p_reg+1)^0,w,c
  1750   0012E6  A4D8               	btfss	status,2,c
  1751   0012E8  EF78  F009         	goto	u381
  1752   0012EC  EF7A  F009         	goto	u380
  1753   0012F0                     u381:
  1754   0012F0  EFBC  F009         	goto	l1616
  1755   0012F4                     u380:
  1756   0012F4  EFE9  F009         	goto	l230
  1757   0012F8                     l1596:
  1758                           
  1759                           ;_HAL/MCAL/GPIO/HAL_GPIO.c: 92:                 *p_reg &= ~(MASK_BIT_0);
  1760   0012F8  C035  FFD9         	movff	clear_bit_uint8@p_reg,fsr2l
  1761   0012FC  C036  FFDA         	movff	clear_bit_uint8@p_reg+1,fsr2h
  1762   001300  0EFE               	movlw	254
  1763   001302  16DF               	andwf	indf2,f,c
  1764                           
  1765                           ;_HAL/MCAL/GPIO/HAL_GPIO.c: 93:                 break;
  1766   001304  EFE9  F009         	goto	l230
  1767   001308                     l1598:
  1768                           
  1769                           ;_HAL/MCAL/GPIO/HAL_GPIO.c: 95:                 *p_reg &= ~(MASK_BIT_1);
  1770   001308  C035  FFD9         	movff	clear_bit_uint8@p_reg,fsr2l
  1771   00130C  C036  FFDA         	movff	clear_bit_uint8@p_reg+1,fsr2h
  1772   001310  0EFD               	movlw	253
  1773   001312  16DF               	andwf	indf2,f,c
  1774                           
  1775                           ;_HAL/MCAL/GPIO/HAL_GPIO.c: 96:                 break;
  1776   001314  EFE9  F009         	goto	l230
  1777   001318                     l1600:
  1778                           
  1779                           ;_HAL/MCAL/GPIO/HAL_GPIO.c: 98:                 *p_reg &= ~(MASK_BIT_2);
  1780   001318  C035  FFD9         	movff	clear_bit_uint8@p_reg,fsr2l
  1781   00131C  C036  FFDA         	movff	clear_bit_uint8@p_reg+1,fsr2h
  1782   001320  0EFB               	movlw	251
  1783   001322  16DF               	andwf	indf2,f,c
  1784                           
  1785                           ;_HAL/MCAL/GPIO/HAL_GPIO.c: 99:                 break;
  1786   001324  EFE9  F009         	goto	l230
  1787   001328                     l1602:
  1788                           
  1789                           ;_HAL/MCAL/GPIO/HAL_GPIO.c: 101:                 *p_reg &= ~(MASK_BIT_3);
  1790   001328  C035  FFD9         	movff	clear_bit_uint8@p_reg,fsr2l
  1791   00132C  C036  FFDA         	movff	clear_bit_uint8@p_reg+1,fsr2h
  1792   001330  0EF7               	movlw	247
  1793   001332  16DF               	andwf	indf2,f,c
  1794                           
  1795                           ;_HAL/MCAL/GPIO/HAL_GPIO.c: 102:                 break;
  1796   001334  EFE9  F009         	goto	l230
  1797   001338                     l1604:
  1798                           
  1799                           ;_HAL/MCAL/GPIO/HAL_GPIO.c: 104:                 *p_reg &= ~(MASK_BIT_4);
  1800   001338  C035  FFD9         	movff	clear_bit_uint8@p_reg,fsr2l
  1801   00133C  C036  FFDA         	movff	clear_bit_uint8@p_reg+1,fsr2h
  1802   001340  0EEF               	movlw	239
  1803   001342  16DF               	andwf	indf2,f,c
  1804                           
  1805                           ;_HAL/MCAL/GPIO/HAL_GPIO.c: 105:                 break;
  1806   001344  EFE9  F009         	goto	l230
  1807   001348                     l1606:
  1808                           
  1809                           ;_HAL/MCAL/GPIO/HAL_GPIO.c: 107:                 *p_reg &= ~(MASK_BIT_5);
  1810   001348  C035  FFD9         	movff	clear_bit_uint8@p_reg,fsr2l
  1811   00134C  C036  FFDA         	movff	clear_bit_uint8@p_reg+1,fsr2h
  1812   001350  0EDF               	movlw	223
  1813   001352  16DF               	andwf	indf2,f,c
  1814                           
  1815                           ;_HAL/MCAL/GPIO/HAL_GPIO.c: 108:                 break;
  1816   001354  EFE9  F009         	goto	l230
  1817   001358                     l1608:
  1818                           
  1819                           ;_HAL/MCAL/GPIO/HAL_GPIO.c: 110:                 *p_reg &= ~(MASK_BIT_6);
  1820   001358  C035  FFD9         	movff	clear_bit_uint8@p_reg,fsr2l
  1821   00135C  C036  FFDA         	movff	clear_bit_uint8@p_reg+1,fsr2h
  1822   001360  0EBF               	movlw	191
  1823   001362  16DF               	andwf	indf2,f,c
  1824                           
  1825                           ;_HAL/MCAL/GPIO/HAL_GPIO.c: 111:                 break;
  1826   001364  EFE9  F009         	goto	l230
  1827   001368                     l1610:
  1828                           
  1829                           ;_HAL/MCAL/GPIO/HAL_GPIO.c: 113:                 *p_reg &= ~(MASK_BIT_7);
  1830   001368  C035  FFD9         	movff	clear_bit_uint8@p_reg,fsr2l
  1831   00136C  C036  FFDA         	movff	clear_bit_uint8@p_reg+1,fsr2h
  1832   001370  0E7F               	movlw	127
  1833   001372  16DF               	andwf	indf2,f,c
  1834                           
  1835                           ;_HAL/MCAL/GPIO/HAL_GPIO.c: 114:                 break;
  1836   001374  EFE9  F009         	goto	l230
  1837   001378                     l1616:
  1838   001378  5037               	movf	clear_bit_uint8@d_IDX_BIT_X^0,w,c
  1839   00137A  6E38               	movwf	??_clear_bit_uint8^0,c
  1840   00137C  6A39               	clrf	(??_clear_bit_uint8+1)^0,c
  1841                           
  1842                           ; Switch on 2 bytes has been partitioned into a top level switch of size 1, and 1 sub-sw
      +                          itches
  1843                           ; Switch size 1, requested type "simple"
  1844                           ; Number of cases is 1, Range of values is 0 to 0
  1845                           ; switch strategies available:
  1846                           ; Name         Instructions Cycles
  1847                           ; simple_byte            4     3 (average)
  1848                           ;	Chosen strategy is simple_byte
  1849   00137E  5039               	movf	(??_clear_bit_uint8+1)^0,w,c
  1850   001380  0A00               	xorlw	0	; case 0
  1851   001382  B4D8               	btfsc	status,2,c
  1852   001384  EFC6  F009         	goto	l1862
  1853   001388  EFE9  F009         	goto	l230
  1854   00138C                     l1862:
  1855                           
  1856                           ; Switch size 1, requested type "simple"
  1857                           ; Number of cases is 8, Range of values is 0 to 7
  1858                           ; switch strategies available:
  1859                           ; Name         Instructions Cycles
  1860                           ; simple_byte           25    13 (average)
  1861                           ;	Chosen strategy is simple_byte
  1862   00138C  5038               	movf	??_clear_bit_uint8^0,w,c
  1863   00138E  0A00               	xorlw	0	; case 0
  1864   001390  B4D8               	btfsc	status,2,c
  1865   001392  EF7C  F009         	goto	l1596
  1866   001396  0A01               	xorlw	1	; case 1
  1867   001398  B4D8               	btfsc	status,2,c
  1868   00139A  EF84  F009         	goto	l1598
  1869   00139E  0A03               	xorlw	3	; case 2
  1870   0013A0  B4D8               	btfsc	status,2,c
  1871   0013A2  EF8C  F009         	goto	l1600
  1872   0013A6  0A01               	xorlw	1	; case 3
  1873   0013A8  B4D8               	btfsc	status,2,c
  1874   0013AA  EF94  F009         	goto	l1602
  1875   0013AE  0A07               	xorlw	7	; case 4
  1876   0013B0  B4D8               	btfsc	status,2,c
  1877   0013B2  EF9C  F009         	goto	l1604
  1878   0013B6  0A01               	xorlw	1	; case 5
  1879   0013B8  B4D8               	btfsc	status,2,c
  1880   0013BA  EFA4  F009         	goto	l1606
  1881   0013BE  0A03               	xorlw	3	; case 6
  1882   0013C0  B4D8               	btfsc	status,2,c
  1883   0013C2  EFAC  F009         	goto	l1608
  1884   0013C6  0A01               	xorlw	1	; case 7
  1885   0013C8  B4D8               	btfsc	status,2,c
  1886   0013CA  EFB4  F009         	goto	l1610
  1887   0013CE  EFE9  F009         	goto	l230
  1888   0013D2                     l230:
  1889   0013D2  0012               	return		;funcret
  1890   0013D4                     __end_of_clear_bit_uint8:
  1891                           	callstack 0
  1892                           
  1893                           	psect	smallconst
  1894   001000                     __psmallconst:
  1895                           	callstack 0
  1896   001000  00                 	db	0
  1897   001001  00                 	db	0	; dummy byte at the end
  1898   000000                     
  1899                           	psect	rparam
  1900   000000                     
  1901                           	psect	config
  1902                           
  1903                           ; Padding undefined space
  1904   300000                     	org	3145728
  1905   300000  FF                 	db	255
  1906                           
  1907                           ;Config register CONFIG1H @ 0x300001
  1908                           ;	Oscillator Selection bits
  1909                           ;	OSC = HS, HS oscillator
  1910                           ;	Fail-Safe Clock Monitor Enable bit
  1911                           ;	FCMEN = OFF, Fail-Safe Clock Monitor disabled
  1912                           ;	Internal/External Oscillator Switchover bit
  1913                           ;	IESO = OFF, Oscillator Switchover mode disabled
  1914   300001                     	org	3145729
  1915   300001  02                 	db	2
  1916                           
  1917                           ;Config register CONFIG2L @ 0x300002
  1918                           ;	Power-up Timer Enable bit
  1919                           ;	PWRT = OFF, PWRT disabled
  1920                           ;	Brown-out Reset Enable bits
  1921                           ;	BOREN = OFF, Brown-out Reset disabled in hardware and software
  1922                           ;	Brown Out Reset Voltage bits
  1923                           ;	BORV = 1, 
  1924   300002                     	org	3145730
  1925   300002  09                 	db	9
  1926                           
  1927                           ;Config register CONFIG2H @ 0x300003
  1928                           ;	Watchdog Timer Enable bit
  1929                           ;	WDT = OFF, WDT disabled (control is placed on the SWDTEN bit)
  1930                           ;	Watchdog Timer Postscale Select bits
  1931                           ;	WDTPS = 32768, 1:32768
  1932   300003                     	org	3145731
  1933   300003  1E                 	db	30
  1934                           
  1935                           ; Padding undefined space
  1936   300004                     	org	3145732
  1937   300004  FF                 	db	255
  1938                           
  1939                           ;Config register CONFIG3H @ 0x300005
  1940                           ;	CCP2 MUX bit
  1941                           ;	CCP2MX = PORTC, CCP2 input/output is multiplexed with RC1
  1942                           ;	PORTB A/D Enable bit
  1943                           ;	PBADEN = OFF, PORTB<4:0> pins are configured as digital I/O on Reset
  1944                           ;	Low-Power Timer1 Oscillator Enable bit
  1945                           ;	LPT1OSC = OFF, Timer1 configured for higher power operation
  1946                           ;	MCLR Pin Enable bit
  1947                           ;	MCLRE = ON, MCLR pin enabled; RE3 input pin disabled
  1948   300005                     	org	3145733
  1949   300005  81                 	db	129
  1950                           
  1951                           ;Config register CONFIG4L @ 0x300006
  1952                           ;	Stack Full/Underflow Reset Enable bit
  1953                           ;	STVREN = ON, Stack full/underflow will cause Reset
  1954                           ;	Single-Supply ICSP Enable bit
  1955                           ;	LVP = OFF, Single-Supply ICSP disabled
  1956                           ;	Extended Instruction Set Enable bit
  1957                           ;	XINST = OFF, Instruction set extension and Indexed Addressing mode disabled (Legacy mo
      +                          de)
  1958                           ;	Background Debugger Enable bit
  1959                           ;	DEBUG = 0x1, unprogrammed default
  1960   300006                     	org	3145734
  1961   300006  81                 	db	129
  1962                           
  1963                           ; Padding undefined space
  1964   300007                     	org	3145735
  1965   300007  FF                 	db	255
  1966                           
  1967                           ;Config register CONFIG5L @ 0x300008
  1968                           ;	Code Protection bit
  1969                           ;	CP0 = OFF, Block 0 (000800-003FFFh) not code-protected
  1970                           ;	Code Protection bit
  1971                           ;	CP1 = OFF, Block 1 (004000-007FFFh) not code-protected
  1972                           ;	Code Protection bit
  1973                           ;	CP2 = OFF, Block 2 (008000-00BFFFh) not code-protected
  1974                           ;	Code Protection bit
  1975                           ;	CP3 = OFF, Block 3 (00C000-00FFFFh) not code-protected
  1976   300008                     	org	3145736
  1977   300008  0F                 	db	15
  1978                           
  1979                           ;Config register CONFIG5H @ 0x300009
  1980                           ;	Boot Block Code Protection bit
  1981                           ;	CPB = OFF, Boot block (000000-0007FFh) not code-protected
  1982                           ;	Data EEPROM Code Protection bit
  1983                           ;	CPD = OFF, Data EEPROM not code-protected
  1984   300009                     	org	3145737
  1985   300009  C0                 	db	192
  1986                           
  1987                           ;Config register CONFIG6L @ 0x30000A
  1988                           ;	Write Protection bit
  1989                           ;	WRT0 = OFF, Block 0 (000800-003FFFh) not write-protected
  1990                           ;	Write Protection bit
  1991                           ;	WRT1 = OFF, Block 1 (004000-007FFFh) not write-protected
  1992                           ;	Write Protection bit
  1993                           ;	WRT2 = OFF, Block 2 (008000-00BFFFh) not write-protected
  1994                           ;	Write Protection bit
  1995                           ;	WRT3 = OFF, Block 3 (00C000-00FFFFh) not write-protected
  1996   30000A                     	org	3145738
  1997   30000A  0F                 	db	15
  1998                           
  1999                           ;Config register CONFIG6H @ 0x30000B
  2000                           ;	Configuration Register Write Protection bit
  2001                           ;	WRTC = OFF, Configuration registers (300000-3000FFh) not write-protected
  2002                           ;	Boot Block Write Protection bit
  2003                           ;	WRTB = OFF, Boot Block (000000-0007FFh) not write-protected
  2004                           ;	Data EEPROM Write Protection bit
  2005                           ;	WRTD = OFF, Data EEPROM not write-protected
  2006   30000B                     	org	3145739
  2007   30000B  E0                 	db	224
  2008                           
  2009                           ;Config register CONFIG7L @ 0x30000C
  2010                           ;	Table Read Protection bit
  2011                           ;	EBTR0 = OFF, Block 0 (000800-003FFFh) not protected from table reads executed in other
      +                           blocks
  2012                           ;	Table Read Protection bit
  2013                           ;	EBTR1 = OFF, Block 1 (004000-007FFFh) not protected from table reads executed in other
      +                           blocks
  2014                           ;	Table Read Protection bit
  2015                           ;	EBTR2 = OFF, Block 2 (008000-00BFFFh) not protected from table reads executed in other
      +                           blocks
  2016                           ;	Table Read Protection bit
  2017                           ;	EBTR3 = OFF, Block 3 (00C000-00FFFFh) not protected from table reads executed in other
      +                           blocks
  2018   30000C                     	org	3145740
  2019   30000C  0F                 	db	15
  2020                           
  2021                           ;Config register CONFIG7H @ 0x30000D
  2022                           ;	Boot Block Table Read Protection bit
  2023                           ;	EBTRB = OFF, Boot Block (000000-0007FFh) not protected from table reads executed in ot
      +                          her blocks
  2024   30000D                     	org	3145741
  2025   30000D  40                 	db	64
  2026                           tosu	equ	0xFFF
  2027                           tosh	equ	0xFFE
  2028                           tosl	equ	0xFFD
  2029                           stkptr	equ	0xFFC
  2030                           pclatu	equ	0xFFB
  2031                           pclath	equ	0xFFA
  2032                           pcl	equ	0xFF9
  2033                           tblptru	equ	0xFF8
  2034                           tblptrh	equ	0xFF7
  2035                           tblptrl	equ	0xFF6
  2036                           tablat	equ	0xFF5
  2037                           prodh	equ	0xFF4
  2038                           prodl	equ	0xFF3
  2039                           indf0	equ	0xFEF
  2040                           postinc0	equ	0xFEE
  2041                           postdec0	equ	0xFED
  2042                           preinc0	equ	0xFEC
  2043                           plusw0	equ	0xFEB
  2044                           fsr0h	equ	0xFEA
  2045                           fsr0l	equ	0xFE9
  2046                           wreg	equ	0xFE8
  2047                           indf1	equ	0xFE7
  2048                           postinc1	equ	0xFE6
  2049                           postdec1	equ	0xFE5
  2050                           preinc1	equ	0xFE4
  2051                           plusw1	equ	0xFE3
  2052                           fsr1h	equ	0xFE2
  2053                           fsr1l	equ	0xFE1
  2054                           bsr	equ	0xFE0
  2055                           indf2	equ	0xFDF
  2056                           postinc2	equ	0xFDE
  2057                           postdec2	equ	0xFDD
  2058                           preinc2	equ	0xFDC
  2059                           plusw2	equ	0xFDB
  2060                           fsr2h	equ	0xFDA
  2061                           fsr2l	equ	0xFD9
  2062                           status	equ	0xFD8

Data Sizes:
    Strings     0
    Constant    0
    Data        52
    BSS         15
    Persistent  0
    Stack       0

Auto Spaces:
    Space          Size  Autos    Used
    COMRAM          127     18      85
    BANK0           128      0       0
    BANK1           256      0       0
    BANK2           256      0       0
    BANK3           256      0       0
    BANK4           256      0       0
    BANK5           256      0       0
    BANK6           256      0       0
    BANK7           256      0       0
    BANK8           256      0       0
    BANK9           256      0       0
    BANK10          256      0       0
    BANK11          256      0       0
    BANK12          256      0       0
    BANK13          256      0       0
    BANK14          256      0       0
    BANK15          128      0       0

Pointer List with Targets:

    clear_bit_uint8@p_reg	PTR volatile unsigned char  size(2) Largest target is 1
		 -> LATA(BITBIGSFRll[1]), LATB(BITBIGSFRlh[1]), LATC(BITBIGSFRlh[1]), LATD(BITBIGSFRlh[1]), 
		 -> LATE(BITBIGSFRlh[1]), TRISA(BITBIGSFRll[1]), TRISB(BITBIGSFRh[1]), TRISC(BITBIGSFRh[1]), 
		 -> TRISD(BITBIGSFRh[1]), TRISE(BITBIGSFRh[1]), 

    gpio_pin_direction_initialize@p_pin_config	PTR const struct . size(1) Largest target is 7
		 -> led_init@led_pin(COMRAM[5]), push_btn_1(COMRAM[7]), push_btn_1$button_pin(COMRAM[5]), push_btn_2(COMRAM[7]), 
		 -> push_btn_2$button_pin(COMRAM[5]), 

    gpio_pin_initialize@p_pin_config	PTR struct . size(1) Largest target is 5
		 -> led_init@led_pin(COMRAM[5]), 

    gpio_pin_read_logic@p_logic	PTR enum E2821 size(1) Largest target is 1
		 -> push_button_read@btn_pin_logic(COMRAM[1]), 

    gpio_pin_read_logic@p_pin_config	PTR const struct . size(1) Largest target is 7
		 -> push_btn_1(COMRAM[7]), push_btn_1$button_pin(COMRAM[5]), push_btn_2(COMRAM[7]), push_btn_2$button_pin(COMRAM[5]), 

    gpio_pin_write_logic@p_pin_config	PTR struct . size(1) Largest target is 5
		 -> led_init@led_pin(COMRAM[5]), led_on_off@led_pin(COMRAM[5]), 

    LAT_REG_ADD_arr	PTR volatile unsigned char [5] size(2) Largest target is 1
		 -> LATA(BITBIGSFRll[1]), LATB(BITBIGSFRlh[1]), LATC(BITBIGSFRlh[1]), LATD(BITBIGSFRlh[1]), 
		 -> LATE(BITBIGSFRlh[1]), 

    led_init@p_led	PTR struct . size(1) Largest target is 3
		 -> led_1(COMRAM[3]), led_2(COMRAM[3]), 

    led_on_off@p_led	PTR struct . size(1) Largest target is 3
		 -> led_1(COMRAM[3]), led_2(COMRAM[3]), 

    PORT_REG_ADD_arr	PTR volatile unsigned char [5] size(2) Largest target is 1
		 -> PORTA(BITBIGSFRll[1]), PORTB(BITBIGSFRll[1]), PORTC(BITBIGSFRll[1]), PORTD(BITBIGSFRll[1]), 
		 -> PORTE(BITBIGSFRll[1]), 

    push_button_init@p_push_button	PTR struct . size(1) Largest target is 7
		 -> push_btn_1(COMRAM[7]), push_btn_2(COMRAM[7]), 

    push_button_read@p_button_state	PTR enum E2914 size(1) Largest target is 1
		 -> button_1_state(COMRAM[1]), button_2_state(COMRAM[1]), 

    push_button_read@p_push_button	PTR struct . size(1) Largest target is 7
		 -> push_btn_1(COMRAM[7]), push_btn_2(COMRAM[7]), 

    set_bit_uint8@p_reg	PTR volatile unsigned char  size(2) Largest target is 1
		 -> LATA(BITBIGSFRll[1]), LATB(BITBIGSFRlh[1]), LATC(BITBIGSFRlh[1]), LATD(BITBIGSFRlh[1]), 
		 -> LATE(BITBIGSFRlh[1]), TRISA(BITBIGSFRll[1]), TRISB(BITBIGSFRh[1]), TRISC(BITBIGSFRh[1]), 
		 -> TRISD(BITBIGSFRh[1]), TRISE(BITBIGSFRh[1]), 

    TRIS_REG_ADD_arr	PTR volatile unsigned char [5] size(2) Largest target is 1
		 -> TRISA(BITBIGSFRll[1]), TRISB(BITBIGSFRh[1]), TRISC(BITBIGSFRh[1]), TRISD(BITBIGSFRh[1]), 
		 -> TRISE(BITBIGSFRh[1]), 


Critical Paths under _main in COMRAM

    _push_button_read->_gpio_pin_read_logic
    _led_on_off->_gpio_pin_write_logic
    _app_init->_led_init
    _push_button_init->_gpio_pin_direction_initialize
    _led_init->_gpio_pin_initialize
    _gpio_pin_initialize->_gpio_pin_write_logic
    _gpio_pin_write_logic->_clear_bit_uint8
    _gpio_pin_write_logic->_set_bit_uint8
    _gpio_pin_direction_initialize->_clear_bit_uint8
    _gpio_pin_direction_initialize->_set_bit_uint8

Critical Paths under _main in BANK0

    None.

Critical Paths under _main in BANK1

    None.

Critical Paths under _main in BANK2

    None.

Critical Paths under _main in BANK3

    None.

Critical Paths under _main in BANK4

    None.

Critical Paths under _main in BANK5

    None.

Critical Paths under _main in BANK6

    None.

Critical Paths under _main in BANK7

    None.

Critical Paths under _main in BANK8

    None.

Critical Paths under _main in BANK9

    None.

Critical Paths under _main in BANK10

    None.

Critical Paths under _main in BANK11

    None.

Critical Paths under _main in BANK12

    None.

Critical Paths under _main in BANK13

    None.

Critical Paths under _main in BANK14

    None.

Critical Paths under _main in BANK15

    None.

Call Graph Tables:

 ---------------------------------------------------------------------------------
 (Depth) Function   	        Calls       Base Space   Used Autos Params    Refs
 ---------------------------------------------------------------------------------
 (0) _main                                                 0     0      0    8558
                           _app_init
                         _led_on_off
                   _push_button_read
 ---------------------------------------------------------------------------------
 (1) _push_button_read                                     4     2      2     841
                                              5 COMRAM     4     2      2
                _gpio_pin_read_logic
 ---------------------------------------------------------------------------------
 (2) _gpio_pin_read_logic                                  5     3      2     293
                                              0 COMRAM     5     3      2
 ---------------------------------------------------------------------------------
 (1) _led_on_off                                           7     5      2    2461
                                              9 COMRAM     7     5      2
               _gpio_pin_write_logic
 ---------------------------------------------------------------------------------
 (1) _app_init                                             0     0      0    5256
                           _led_init
                   _push_button_init
 ---------------------------------------------------------------------------------
 (2) _push_button_init                                     1     0      1    1626
                                              8 COMRAM     1     0      1
      _gpio_pin_direction_initialize
 ---------------------------------------------------------------------------------
 (2) _led_init                                             7     6      1    3630
                                             12 COMRAM     6     5      1
                _gpio_pin_initialize
 ---------------------------------------------------------------------------------
 (3) _gpio_pin_initialize                                  3     2      1    3276
                                              9 COMRAM     3     2      1
      _gpio_pin_direction_initialize
               _gpio_pin_write_logic
 ---------------------------------------------------------------------------------
 (2) _gpio_pin_write_logic                                 4     2      2    1638
                                              5 COMRAM     4     2      2
                    _clear_bit_uint8
                      _set_bit_uint8
 ---------------------------------------------------------------------------------
 (3) _gpio_pin_direction_initialize                        3     2      1    1430
                                              5 COMRAM     3     2      1
                    _clear_bit_uint8
                      _set_bit_uint8
 ---------------------------------------------------------------------------------
 (3) _set_bit_uint8                                        5     2      3     524
                                              0 COMRAM     5     2      3
 ---------------------------------------------------------------------------------
 (3) _clear_bit_uint8                                      5     2      3     524
                                              0 COMRAM     5     2      3
 ---------------------------------------------------------------------------------
 Estimated maximum stack depth 3
 ---------------------------------------------------------------------------------

 Call Graph Graphs:

 _main (ROOT)
   _app_init
     _led_init
       _gpio_pin_initialize
         _gpio_pin_direction_initialize
           _clear_bit_uint8
           _set_bit_uint8
         _gpio_pin_write_logic
           _clear_bit_uint8
           _set_bit_uint8
     _push_button_init
       _gpio_pin_direction_initialize
   _led_on_off
     _gpio_pin_write_logic
   _push_button_read
     _gpio_pin_read_logic

 Address spaces:
Name               Size   Autos  Total    Cost      Usage
BIGRAM             F7F      0       0      40        0.0%
EEDATA             400      0       0       0        0.0%
BITBANK14          100      0       0      32        0.0%
BANK14             100      0       0      33        0.0%
BITBANK13          100      0       0      30        0.0%
BANK13             100      0       0      31        0.0%
BITBANK12          100      0       0      28        0.0%
BANK12             100      0       0      29        0.0%
BITBANK11          100      0       0      26        0.0%
BANK11             100      0       0      27        0.0%
BITBANK10          100      0       0      24        0.0%
BANK10             100      0       0      25        0.0%
BITBANK9           100      0       0      22        0.0%
BANK9              100      0       0      23        0.0%
BITBANK8           100      0       0      20        0.0%
BANK8              100      0       0      21        0.0%
BITBANK7           100      0       0      18        0.0%
BANK7              100      0       0      19        0.0%
BITBANK6           100      0       0      16        0.0%
BANK6              100      0       0      17        0.0%
BITBANK5           100      0       0      14        0.0%
BANK5              100      0       0      15        0.0%
BITBANK4           100      0       0      12        0.0%
BANK4              100      0       0      13        0.0%
BITBANK3           100      0       0      10        0.0%
BANK3              100      0       0      11        0.0%
BITBANK2           100      0       0       8        0.0%
BANK2              100      0       0       9        0.0%
BITBANK1           100      0       0       6        0.0%
BANK1              100      0       0       7        0.0%
BITBANK15           80      0       0      34        0.0%
BANK15              80      0       0      35        0.0%
BITBANK0            80      0       0       4        0.0%
BANK0               80      0       0       5        0.0%
BITCOMRAM           7F      0       0       0        0.0%
COMRAM              7F     12      55       1       66.9%
BITBIGSFRh          69      0       0      36        0.0%
BITBIGSFRlh          4      0       0      37        0.0%
BITBIGSFRll          4      0       0      38        0.0%
BIGSFR               0      0       0     200        0.0%
BITSFR               0      0       0     200        0.0%
SFR                  0      0       0     200        0.0%
STACK                0      0       0       2        0.0%
NULL                 0      0       0       0        0.0%
ABS                  0      0      55      39        0.0%
DATA                 0      0      55       3        0.0%
CODE                 0      0       0       0        0.0%


Microchip Technology PIC18 Macro Assembler V2.45 build 20230818022343 
Symbol Table                                                                                   Mon Dec 18 15:52:52 2023

                                       l55 1768                                         l99 1786  
      gpio_pin_write_logic@d_logic_desired 003B                                        l105 14B8  
                                      l106 1536                                        l230 13D2  
                                      l214 12E0                                        l302 162E  
                                      l312 10FC                                        l164 16DC  
                                      l157 1688                                        l422 153C  
                                      l264 1492                                        l424 1574  
                                      l276 11EE                                        u400 13FA  
                                      u401 13F6                                        u410 110E  
                                      u411 110A                                        u420 1124  
                                      u500 10F8                                        u421 1120  
                                      u501 10F2                                        u430 1134  
                                      u510 10FA                                        u431 1130  
                                      u440 1144                                        u520 14A4  
                                      u600 1558                                        u441 1140  
                                      u521 14A0                                        u601 1554  
                                      u370 1202                                        u450 15C4  
                                      u530 14B4                                        u610 1590  
                                      u371 11FE                                        u451 15C0  
                                      u531 14B0                                        u611 158C  
                                      u380 12F4                                        u460 177A  
                                      u540 14E2                                        u381 12F0  
                                      u461 1776                                        u541 14DE  
                                      u390 13E4                                        u470 1640  
                                      u550 14FC                                        u391 13E0  
                                      u471 163C                                        u551 14F8  
                                      u560 1518                                        u481 164E  
                                      u561 1514                                        u490 1012  
                                      u570 1532                                        u491 100E  
                                      u571 152E                                        u580 169A  
                                      u581 1696                                        u591 16A8  
           push_button_read@p_button_state 003B                                        wreg 0FE8  
          gpio_pin_read_logic@p_pin_config 0035                                       l1600 1318  
                                     l1610 1368                                       l1602 1328  
                                     l1604 1338                                       l1700 176A  
                                     l1606 1348                                       l1630 142E  
                                     l1622 13D4                                       l1710 1630  
                                     l1608 1358                                       l1616 1378  
                                     l1624 13E4                                       l1720 1660  
                                     l1800 169E                                       l1570 1236  
                                     l1642 10FE                                       l1722 166E  
                                     l1706 177E                                       l1810 16D0  
                                     l1802 16B0                                       l1730 1002  
                                     l1572 1246                                       l1564 1206  
                                     l1628 13FE                                       l1636 145E  
                                     l1652 1148                                       l1644 110E  
                                     l1724 1672                                       l1716 1644  
                                     l1804 16BA                                       l1740 1026  
                                     l1820 1568                                       l1590 12E2  
                                     l1574 1256                                       l1566 1216  
                                     l1558 11F0                                       l1654 1156  
                                     l1646 1124                                       l1670 15B4  
                                     l1726 1680                                       l1718 1656  
                                     l1806 16C8                                       l1750 104E  
                                     l1742 102E                                       l1822 1580  
                                     l1814 1538                                       l1576 1266  
                                     l1568 1226                                       l1584 1286  
                                     l1656 1186                                       l1648 1134  
                                     l1664 11C4                                       l1680 15D6  
                                     l1672 15C4                                       l1808 16CC  
                                     l1744 1036                                       l1736 1016  
                                     l1824 1590                                       l1816 1548  
                                     l1578 1276                                       l1658 1194  
                                     l1690 15F8                                       l1770 1760  
                                     l1746 103E                                       l1738 101E  
                                     l1826 15A0                                       l1818 1558  
                                     l1596 12F8                                       l1860 129A  
                                     l1692 162C                                       l1852 1074  
                                     l1748 1046                                       l1756 1056  
                                     l1780 14C6                                       l1772 1494  
                                     l1862 138C                                       l1598 1308  
                                     l1854 1616                                       l1678 15CA  
                                     l1766 1748                                       l1758 10BA  
                                     l1790 1518                                       l1782 14D2  
                                     l1774 14A4                                       l1856 11D8  
                                     l1768 1758                                       l1784 14E2  
                                     l1858 147C                                       l1794 168A  
                                     l1786 14FC                                       l1778 14BC  
                                     l1788 1508                                       _LATA 0F89  
                                     _LATB 0F8A                                       _LATC 0F8B  
                                     _LATD 0F8C                                       _LATE 0F8D  
                                     _main 1538                                       fsr1h 0FE2  
                                     fsr2h 0FDA                                       indf1 0FE7  
                                     indf2 0FDF                                       fsr1l 0FE1  
                                     fsr2l 0FD9                                       prodl 0FF3  
                                     start 0000                               ___param_bank 0000  
                     _gpio_pin_write_logic 10FE                                      ?_main 0035  
                                    _PORTA 0F80                                      _PORTB 0F81  
                                    _PORTC 0F82                                      _PORTD 0F83  
                                    _PORTE 0F84                                      _TRISA 0F92  
                                    _TRISB 0F93                                      _TRISC 0F94  
                                    _TRISD 0F95                                      _TRISE 0F96  
                                    _led_1 0030                                      _led_2 002D  
                                    tablat 0FF5                            led_on_off@F2938 004C  
                                    plusw1 0FE3                                      plusw2 0FDB  
                                    status 0FD8              push_button_init@p_push_button 003D  
           ?_gpio_pin_direction_initialize 003A                            __initialization 16DE  
                             __end_of_main 15B4                            led_on_off@p_led 003E  
                    ?_gpio_pin_write_logic 003A                                     ??_main 0047  
                            __activetblptr 0002                           __end_of_app_init 176A  
            push_button_read@p_push_button 003A                           __end_of_led_init 168A  
                                   clear_0 1704                                     isa$std 0001  
                            led_init@F2933 0051                          ?_push_button_init 003D  
                        ?_push_button_read 003A                               __pdataCOMRAM 0001  
                             __mediumconst 0000                                     tblptrh 0FF7  
                                   tblptrl 0FF6                                     tblptru 0FF8  
                       ??_push_button_init 003E                         ??_push_button_read 003C  
                    __end_of_set_bit_uint8 12E2                              led_init@p_led 0041  
                               __accesstop 0080                    __end_of__initialization 170A  
                            ___rparam_used 0001                     ??_gpio_pin_write_logic 003C  
                           __pcstackCOMRAM 0035                           _PORT_REG_ADD_arr 000B  
         gpio_pin_write_logic@p_pin_config 003A                            led_toggle@F2942 0047  
               gpio_pin_read_logic@p_logic 0036                                  ?_app_init 0035  
                          _LAT_REG_ADD_arr 0001                                 _led_on_off 168A  
                                ?_led_init 0041                          ??_clear_bit_uint8 0038  
                                  __Hparam 0000                                    __Lparam 0000  
                      _gpio_pin_initialize 15B4                        _gpio_pin_read_logic 1002  
                             __psmallconst 1000                                    __pcinit 16DE  
                     led_on_off@led_status 003F                                    __ramtop 1000  
                                  __ptext0 1538                                    __ptext1 1494  
                                  __ptext2 1002                                    __ptext3 168A  
                                  __ptext4 1748                                    __ptext5 176A  
                                  __ptext6 1630                                    __ptext7 15B4  
                                  __ptext8 10FE                                    __ptext9 13D4  
          ??_gpio_pin_direction_initialize 003B                 clear_bit_uint8@d_IDX_BIT_X 0037  
                     ?_gpio_pin_initialize 003E                                 ??_app_init 0047  
                     ?_gpio_pin_read_logic 0035                                 ??_led_init 0042  
                     end_of_initialization 170A                              __Lmediumconst 0000  
                     clear_bit_uint8@p_reg 0035                                    postdec1 0FE5  
                                  postdec2 0FDD                                    postinc0 0FEE  
                                  postinc1 0FE6                                    postinc2 0FDE  
                    ??_gpio_pin_initialize 003F                      ??_gpio_pin_read_logic 0037  
                               _push_btn_1 0026                                 _push_btn_2 001F  
                              ?_led_on_off 003E                              __pidataCOMRAM 1714  
                        led_on_off@led_pin 0040                        start_initialization 16DE  
    __end_of_gpio_pin_direction_initialize 1494              _gpio_pin_direction_initialize 13D4  
                           _button_1_state 0034                             _button_2_state 0033  
          gpio_pin_initialize@p_pin_config 003E                            _clear_bit_uint8 12E2  
                              __pbssCOMRAM 0047                                __smallconst 1000  
                            _set_bit_uint8 11F0                gpio_pin_read_logic@bit_mask 0039  
                         _push_button_init 176A                           _push_button_read 1494  
                  __end_of_clear_bit_uint8 13D4              push_button_read@btn_pin_logic 003D  
                           ?_set_bit_uint8 0035                               ??_led_on_off 0040  
                                copy_data0 16F2                                   __Hrparam 0000  
                                 __Lrparam 0000                         __end_of_led_on_off 16DE  
              __end_of_gpio_pin_initialize 1630                __end_of_gpio_pin_read_logic 10FE  
                 set_bit_uint8@d_IDX_BIT_X 0037                                   __ptext10 11F0  
                                 __ptext11 12E2                                   _app_init 1748  
                                 _led_init 1630                                   isa$xinst 0000  
                         ?_clear_bit_uint8 0035                         set_bit_uint8@p_reg 0035  
                          ??_set_bit_uint8 0038               __end_of_gpio_pin_write_logic 11F0  
gpio_pin_direction_initialize@p_pin_config 003A                   __end_of_push_button_init 1788  
                 __end_of_push_button_read 1538                           _TRIS_REG_ADD_arr 0015  
                          led_init@led_pin 0042  
